
testprograms_hex/stringReplace/StringReplace.ino.hex: file format ihex


Disassembly of section .sec1:

00002000 <.sec1>:
    2000:       8000            strh    r0, [r0, #0]
    2002:       2000            movs    r0,#0
    2004:       22d9            movs    r2,#217    ; 0xd9
    2006:       0000            movs    r0, r0
    2008:       22c1            movs    r2,#193    ; 0xc1
    200a:       0000            movs    r0, r0
    200c:       22c1            movs    r2,#193    ; 0xc1
    200e:       0000            movs    r0, r0
    2010:       0000            movs    r0, r0
    2012:       0000            movs    r0, r0
    2014:       0000            movs    r0, r0
    2016:       0000            movs    r0, r0
    2018:       0000            movs    r0, r0
    201a:       0000            movs    r0, r0
    201c:       0000            movs    r0, r0
    201e:       0000            movs    r0, r0
    2020:       0000            movs    r0, r0
    2022:       0000            movs    r0, r0
    2024:       0000            movs    r0, r0
    2026:       0000            movs    r0, r0
    2028:       0000            movs    r0, r0
    202a:       0000            movs    r0, r0
    202c:       22c1            movs    r2,#193    ; 0xc1
    202e:       0000            movs    r0, r0
    2030:       0000            movs    r0, r0
    2032:       0000            movs    r0, r0
    2034:       0000            movs    r0, r0
    2036:       0000            movs    r0, r0
    2038:       22c1            movs    r2,#193    ; 0xc1
    203a:       0000            movs    r0, r0
    203c:       232d            movs    r3,#45    ; 0x2d
    203e:       0000            movs    r0, r0
    2040:       22c1            movs    r2,#193    ; 0xc1
    2042:       0000            movs    r0, r0
    2044:       22c1            movs    r2,#193    ; 0xc1
    2046:       0000            movs    r0, r0
    2048:       22c1            movs    r2,#193    ; 0xc1
    204a:       0000            movs    r0, r0
    204c:       22c1            movs    r2,#193    ; 0xc1
    204e:       0000            movs    r0, r0
    2050:       22c1            movs    r2,#193    ; 0xc1
    2052:       0000            movs    r0, r0
    2054:       22c1            movs    r2,#193    ; 0xc1
    2056:       0000            movs    r0, r0
    2058:       22c1            movs    r2,#193    ; 0xc1
    205a:       0000            movs    r0, r0
    205c:       22c5            movs    r2,#197    ; 0xc5
    205e:       0000            movs    r0, r0
    2060:       22c1            movs    r2,#193    ; 0xc1
    2062:       0000            movs    r0, r0
    2064:       2235            movs    r2,#53    ; 0x35
    2066:       0000            movs    r0, r0
    2068:       22c1            movs    r2,#193    ; 0xc1
    206a:       0000            movs    r0, r0
    206c:       22c1            movs    r2,#193    ; 0xc1
    206e:       0000            movs    r0, r0
    2070:       22c1            movs    r2,#193    ; 0xc1
    2072:       0000            movs    r0, r0
    2074:       22c1            movs    r2,#193    ; 0xc1
    2076:       0000            movs    r0, r0
    2078:       22c1            movs    r2,#193    ; 0xc1
    207a:       0000            movs    r0, r0
    207c:       22c1            movs    r2,#193    ; 0xc1
    207e:       0000            movs    r0, r0
    2080:       22c1            movs    r2,#193    ; 0xc1
    2082:       0000            movs    r0, r0
    2084:       22c1            movs    r2,#193    ; 0xc1
    2086:       0000            movs    r0, r0
    2088:       22c1            movs    r2,#193    ; 0xc1
    208a:       0000            movs    r0, r0
    208c:       22c1            movs    r2,#193    ; 0xc1
    208e:       0000            movs    r0, r0
    2090:       0000            movs    r0, r0
    2092:       0000            movs    r0, r0
    2094:       22c1            movs    r2,#193    ; 0xc1
    2096:       0000            movs    r0, r0
    2098:       22c1            movs    r2,#193    ; 0xc1
    209a:       0000            movs    r0, r0
    209c:       22c1            movs    r2,#193    ; 0xc1
    209e:       0000            movs    r0, r0
    20a0:       22c1            movs    r2,#193    ; 0xc1
    20a2:       0000            movs    r0, r0
    20a4:       22c1            movs    r2,#193    ; 0xc1
    20a6:       0000            movs    r0, r0
    20a8:       22c1            movs    r2,#193    ; 0xc1
    20aa:       0000            movs    r0, r0
    20ac:       22c1            movs    r2,#193    ; 0xc1
    20ae:       0000            movs    r0, r0
    20b0:       0000            movs    r0, r0
    20b2:       0000            movs    r0, r0
    20b4:       b510            push   {r4,lr}
    20b6:       4c06            ldr     r4, [pc, #24]    ; (0x20d0)
    20b8:       7823            ldrb    r3, [r4, #0]
    20ba:       2b00            cmp     r3,#0
    20bc:       d107            bne.n  0x20ce
    20be:       4b05            ldr     r3, [pc, #20]    ; (0x20d4)
    20c0:       2b00            cmp     r3,#0
    20c2:       d002            beq.n  0x20ca
    20c4:       4804            ldr     r0, [pc, #16]    ; (0x20d8)
    20c6:       e000            b.n    0x20ca
    20c8:       bf00            nop    
    20ca:       2301            movs    r3,#1
    20cc:       7023            strb    r3, [r4, #0]
    20ce:       bd10            pop    {r4, pc}
    20d0:       0100            lsls    r0, r0, #4
    20d2:       2000            movs    r0,#0
    20d4:       0000            movs    r0, r0
    20d6:       0000            movs    r0, r0
    20d8:       4ed0            ldr     r6, [pc, #832]    ; (0x241c)
    20da:       0000            movs    r0, r0
    20dc:       4b04            ldr     r3, [pc, #16]    ; (0x20f0)
    20de:       b510            push   {r4,lr}
    20e0:       2b00            cmp     r3,#0
    20e2:       d003            beq.n  0x20ec
    20e4:       4903            ldr     r1, [pc, #12]    ; (0x20f4)
    20e6:       4804            ldr     r0, [pc, #16]    ; (0x20f8)
    20e8:       e000            b.n    0x20ec
    20ea:       bf00            nop    
    20ec:       bd10            pop    {r4, pc}
    20ee:       46c0            nop               ; (mov r8, r8)
    20f0:       0000            movs    r0, r0
    20f2:       0000            movs    r0, r0
    20f4:       0104            lsls    r4, r0, #4
    20f6:       2000            movs    r0,#0
    20f8:       4ed0            ldr     r6, [pc, #832]    ; (0x243c)
    20fa:       0000            movs    r0, r0
    20fc:       2196            movs    r1,#150    ; 0x96
    20fe:       b510            push   {r4,lr}
    2100:       4c08            ldr     r4, [pc, #32]    ; (0x2124)
    2102:       0189            lsls    r1, r1, #6
    2104:       0020            movs    r0, r4
    2106:       f000 fdf3       bl     0x2cf0
    210a:       0020            movs    r0, r4
    210c:       f000 fdf2       bl     0x2cf4
    2110:       2800            cmp     r0,#0
    2112:       d0fa            beq.n  0x210a
    2114:       4904            ldr     r1, [pc, #16]    ; (0x2128)
    2116:       0020            movs    r0, r4
    2118:       f000 fbc8       bl     0x28ac
    211c:       0020            movs    r0, r4
    211e:       f000 fbb3       bl     0x2888
    2122:       bd10            pop    {r4, pc}
    2124:       0438            lsls    r0, r7, #16
    2126:       2000            movs    r0,#0
    2128:       4978            ldr     r1, [pc, #480]    ; (0x230c)
    212a:       0000            movs    r0, r0
    212c:       b510            push   {r4,lr}
    212e:       b090            sub     sp, #64     ; 0x40
    2130:       4937            ldr     r1, [pc, #220]    ; (0x2210)
    2132:       a801            add     r0, sp, #4
    2134:       f002 f819       bl     0x416a
    2138:       4c36            ldr     r4, [pc, #216]    ; (0x2214)
    213a:       a901            add     r1, sp, #4
    213c:       0020            movs    r0, r4
    213e:       f000 fbab       bl     0x2898
    2142:       a901            add     r1, sp, #4
    2144:       a804            add     r0, sp, #16
    2146:       f002 f833       bl     0x41b0
    214a:       4933            ldr     r1, [pc, #204]    ; (0x2218)
    214c:       a80a            add     r0, sp, #40     ; 0x28
    214e:       f002 f80c       bl     0x416a
    2152:       4932            ldr     r1, [pc, #200]    ; (0x221c)
    2154:       a80d            add     r0, sp, #52     ; 0x34
    2156:       f002 f808       bl     0x416a
    215a:       aa0d            add     r2, sp, #52     ; 0x34
    215c:       a90a            add     r1, sp, #40     ; 0x28
    215e:       a804            add     r0, sp, #16
    2160:       f002 f888       bl     0x4274
    2164:       a80d            add     r0, sp, #52     ; 0x34
    2166:       f001 ffb8       bl     0x40da
    216a:       a80a            add     r0, sp, #40     ; 0x28
    216c:       f001 ffb5       bl     0x40da
    2170:       492b            ldr     r1, [pc, #172]    ; (0x2220)
    2172:       a80d            add     r0, sp, #52     ; 0x34
    2174:       f001 fff9       bl     0x416a
    2178:       a901            add     r1, sp, #4
    217a:       a80d            add     r0, sp, #52     ; 0x34
    217c:       f002 f83b       bl     0x41f6
    2180:       0001            movs    r1, r0
    2182:       0020            movs    r0, r4
    2184:       f000 fb88       bl     0x2898
    2188:       a80d            add     r0, sp, #52     ; 0x34
    218a:       f001 ffa6       bl     0x40da
    218e:       4925            ldr     r1, [pc, #148]    ; (0x2224)
    2190:       a80d            add     r0, sp, #52     ; 0x34
    2192:       f001 ffea       bl     0x416a
    2196:       a904            add     r1, sp, #16
    2198:       a80d            add     r0, sp, #52     ; 0x34
    219a:       f002 f82c       bl     0x41f6
    219e:       0001            movs    r1, r0
    21a0:       0020            movs    r0, r4
    21a2:       f000 fb79       bl     0x2898
    21a6:       a80d            add     r0, sp, #52     ; 0x34
    21a8:       f001 ff97       bl     0x40da
    21ac:       491e            ldr     r1, [pc, #120]    ; (0x2228)
    21ae:       a807            add     r0, sp, #28
    21b0:       f001 ffdb       bl     0x416a
    21b4:       491d            ldr     r1, [pc, #116]    ; (0x222c)
    21b6:       a80d            add     r0, sp, #52     ; 0x34
    21b8:       f001 ffd7       bl     0x416a
    21bc:       a907            add     r1, sp, #28
    21be:       a80d            add     r0, sp, #52     ; 0x34
    21c0:       f002 f819       bl     0x41f6
    21c4:       0001            movs    r1, r0
    21c6:       0020            movs    r0, r4
    21c8:       f000 fb66       bl     0x2898
    21cc:       a80d            add     r0, sp, #52     ; 0x34
    21ce:       f001 ff84       bl     0x40da
    21d2:       a907            add     r1, sp, #28
    21d4:       a80a            add     r0, sp, #40     ; 0x28
    21d6:       f001 ffeb       bl     0x41b0
    21da:       2230            movs    r2,#48    ; 0x30
    21dc:       216f            movs    r1,#111    ; 0x6f
    21de:       a80a            add     r0, sp, #40     ; 0x28
    21e0:       f002 f83c       bl     0x425c
    21e4:       2233            movs    r2,#51    ; 0x33
    21e6:       2165            movs    r1,#101    ; 0x65
    21e8:       a80a            add     r0, sp, #40     ; 0x28
    21ea:       f002 f837       bl     0x425c
    21ee:       4910            ldr     r1, [pc, #64]    ; (0x2230)
    21f0:       a80d            add     r0, sp, #52     ; 0x34
    21f2:       f001 ffba       bl     0x416a
    21f6:       a90a            add     r1, sp, #40     ; 0x28
    21f8:       a80d            add     r0, sp, #52     ; 0x34
    21fa:       f001 fffc       bl     0x41f6
    21fe:       0001            movs    r1, r0
    2200:       0020            movs    r0, r4
    2202:       f000 fb49       bl     0x2898
    2206:       a80d            add     r0, sp, #52     ; 0x34
    2208:       f001 ff67       bl     0x40da
    220c:       e7fe            b.n    0x220c
    220e:       46c0            nop               ; (mov r8, r8)
    2210:       498b            ldr     r1, [pc, #556]    ; (0x2440)
    2212:       0000            movs    r0, r0
    2214:       0438            lsls    r0, r7, #16
    2216:       2000            movs    r0,#0
    2218:       499e            ldr     r1, [pc, #632]    ; (0x2494)
    221a:       0000            movs    r0, r0
    221c:       49a0            ldr     r1, [pc, #640]    ; (0x24a0)
    221e:       0000            movs    r0, r0
    2220:       49a3            ldr     r1, [pc, #652]    ; (0x24b0)
    2222:       0000            movs    r0, r0
    2224:       49b5            ldr     r1, [pc, #724]    ; (0x24fc)
    2226:       0000            movs    r0, r0
    2228:       49c7            ldr     r1, [pc, #796]    ; (0x2548)
    222a:       0000            movs    r0, r0
    222c:       49d2            ldr     r1, [pc, #840]    ; (0x2578)
    222e:       0000            movs    r0, r0
    2230:       49db            ldr     r1, [pc, #876]    ; (0x25a0)
    2232:       0000            movs    r0, r0
    2234:       b510            push   {r4,lr}
    2236:       4802            ldr     r0, [pc, #8]    ; (0x2240)
    2238:       f001 fe56       bl     0x3ee8
    223c:       bd10            pop    {r4, pc}
    223e:       46c0            nop               ; (mov r8, r8)
    2240:       011c            lsls    r4, r3, #4
    2242:       2000            movs    r0,#0
    2244:       b513            push   {r0, r1, r4,lr}
    2246:       4c11            ldr     r4, [pc, #68]    ; (0x228c)
    2248:       4911            ldr     r1, [pc, #68]    ; (0x2290)
    224a:       0020            movs    r0, r4
    224c:       f000 fb80       bl     0x2950
    2250:       4910            ldr     r1, [pc, #64]    ; (0x2294)
    2252:       4811            ldr     r0, [pc, #68]    ; (0x2298)
    2254:       f000 fb7c       bl     0x2950
    2258:       4910            ldr     r1, [pc, #64]    ; (0x229c)
    225a:       4811            ldr     r0, [pc, #68]    ; (0x22a0)
    225c:       f000 fb78       bl     0x2950
    2260:       4910            ldr     r1, [pc, #64]    ; (0x22a4)
    2262:       4811            ldr     r0, [pc, #68]    ; (0x22a8)
    2264:       f000 fb74       bl     0x2950
    2268:       4910            ldr     r1, [pc, #64]    ; (0x22ac)
    226a:       4811            ldr     r0, [pc, #68]    ; (0x22b0)
    226c:       f000 fb70       bl     0x2950
    2270:       4910            ldr     r1, [pc, #64]    ; (0x22b4)
    2272:       4811            ldr     r0, [pc, #68]    ; (0x22b8)
    2274:       f000 fb6c       bl     0x2950
    2278:       2301            movs    r3,#1
    227a:       2203            movs    r2,#3
    227c:       0021            movs    r1, r4
    227e:       9200            str     r2, [sp, #0]
    2280:       9301            str     r3, [sp, #4]
    2282:       2200            movs    r2,#0
    2284:       480d            ldr     r0, [pc, #52]    ; (0x22bc)
    2286:       f001 fdc5       bl     0x3e14
    228a:       bd13            pop    {r0, r1, r4, pc}
    228c:       0418            lsls    r0, r3, #16
    228e:       2000            movs    r0,#0
    2290:       0800            lsrs    r0, r0, #32
    2292:       4200            tst     r0, r0
    2294:       0c00            lsrs    r0, r0, #16
    2296:       4200            tst     r0, r0
    2298:       041c            lsls    r4, r3, #16
    229a:       2000            movs    r0,#0
    229c:       1000            asrs    r0, r0, #32
    229e:       4200            tst     r0, r0
    22a0:       0420            lsls    r0, r4, #16
    22a2:       2000            movs    r0,#0
    22a4:       1400            asrs    r0, r0, #16
    22a6:       4200            tst     r0, r0
    22a8:       0424            lsls    r4, r4, #16
    22aa:       2000            movs    r0,#0
    22ac:       1800            adds    r0, r0, r0
    22ae:       4200            tst     r0, r0
    22b0:       0428            lsls    r0, r5, #16
    22b2:       2000            movs    r0,#0
    22b4:       1c00            adds    r0, r0, #0
    22b6:       4200            tst     r0, r0
    22b8:       042c            lsls    r4, r5, #16
    22ba:       2000            movs    r0,#0
    22bc:       011c            lsls    r4, r3, #4
    22be:       2000            movs    r0,#0
    22c0:       e7fe            b.n    0x22c0
    22c2:       0000            movs    r0, r0
    22c4:       4b03            ldr     r3, [pc, #12]    ; (0x22d4)
    22c6:       b510            push   {r4,lr}
    22c8:       681b            ldr     r3, [r3, #0]
    22ca:       2b00            cmp     r3,#0
    22cc:       d000            beq.n  0x22d0
    22ce:       4798            blx     r3
    22d0:       bd10            pop    {r4, pc}
    22d2:       46c0            nop               ; (mov r8, r8)
    22d4:       0430            lsls    r0, r6, #16
    22d6:       2000            movs    r0,#0
    22d8:       4a0f            ldr     r2, [pc, #60]    ; (0x2318)
    22da:       4810            ldr     r0, [pc, #64]    ; (0x231c)
    22dc:       0011            movs    r1, r2
    22de:       b510            push   {r4,lr}
    22e0:       4b0f            ldr     r3, [pc, #60]    ; (0x2320)
    22e2:       4282            cmp     r2, r0
    22e4:       d002            beq.n  0x22ec
    22e6:       4293            cmp     r3, r2
    22e8:       d109            bne.n  0x22fe
    22ea:       0013            movs    r3, r2
    22ec:       4282            cmp     r2, r0
    22ee:       d109            bne.n  0x2304
    22f0:       f000 f884       bl     0x23fc
    22f4:       f002 f852       bl     0x439c
    22f8:       e7fe            b.n    0x22f8
    22fa:       cb10            ldmia   r3!, {r4}
    22fc:       c110            stmia   r1!, {r4}
    22fe:       4281            cmp     r1, r0
    2300:       d3fb            bcc.n  0x22fa
    2302:       e7f3            b.n    0x22ec
    2304:       4a07            ldr     r2, [pc, #28]    ; (0x2324)
    2306:       428b            cmp     r3, r1
    2308:       d0f2            beq.n  0x22f0
    230a:       2100            movs    r1,#0
    230c:       4b06            ldr     r3, [pc, #24]    ; (0x2328)
    230e:       429a            cmp     r2, r3
    2310:       d2ee            bcs.n  0x22f0
    2312:       c202            stmia   r2!, {r1}
    2314:       e7fb            b.n    0x230e
    2316:       46c0            nop               ; (mov r8, r8)
    2318:       0000            movs    r0, r0
    231a:       2000            movs    r0,#0
    231c:       0100            lsls    r0, r0, #4
    231e:       2000            movs    r0,#0
    2320:       4ed4            ldr     r6, [pc, #848]    ; (0x2674)
    2322:       0000            movs    r0, r0
    2324:       0100            lsls    r0, r0, #4
    2326:       2000            movs    r0,#0
    2328:       0a38            lsrs    r0, r7, #8
    232a:       2000            movs    r0,#0
    232c:       b510            push   {r4,lr}
    232e:       f000 f862       bl     0x23f6
    2332:       2800            cmp     r0,#0
    2334:       d101            bne.n  0x233a
    2336:       f000 f853       bl     0x23e0
    233a:       bd10            pop    {r4, pc}
    233c:       4b01            ldr     r3, [pc, #4]    ; (0x2344)
    233e:       6018            str     r0, [r3, #0]
    2340:       4770            bx      lr
    2342:       46c0            nop               ; (mov r8, r8)
    2344:       0430            lsls    r0, r6, #16
    2346:       2000            movs    r0,#0
    2348:       4b01            ldr     r3, [pc, #4]    ; (0x2350)
    234a:       6818            ldr     r0, [r3, #0]
    234c:       4770            bx      lr
    234e:       46c0            nop               ; (mov r8, r8)
    2350:       0434            lsls    r4, r6, #16
    2352:       2000            movs    r0,#0
    2354:       b5f7            push   {r0, r1, r2, r4, r5, r6, r7,lr}
    2356:       4813            ldr     r0, [pc, #76]    ; (0x23a4)
    2358:       2201            movs    r2,#1
    235a:       4684            mov     ip, r0
    235c:       4912            ldr     r1, [pc, #72]    ; (0x23a8)
    235e:       4c13            ldr     r4, [pc, #76]    ; (0x23ac)
    2360:       688e            ldr     r6, [r1, #8]
    2362:       6863            ldr     r3, [r4, #4]
    2364:       6805            ldr     r5, [r0, #0]
    2366:       0e9b            lsrs    r3, r3, #26
    2368:       4013            ands    r3, r2
    236a:       9201            str     r2, [sp, #4]
    236c:       6888            ldr     r0, [r1, #8]
    236e:       6862            ldr     r2, [r4, #4]
    2370:       9f01            ldr     r7, [sp, #4]
    2372:       0e92            lsrs    r2, r2, #26
    2374:       403a            ands    r2, r7
    2376:       4667            mov     r7, ip
    2378:       683f            ldr     r7, [r7, #0]
    237a:       4293            cmp     r3, r2
    237c:       d10e            bne.n  0x239c
    237e:       42bd            cmp     r5, r7
    2380:       d10c            bne.n  0x239c
    2382:       4286            cmp     r6, r0
    2384:       d30a            bcc.n  0x239c
    2386:       195b            adds    r3, r3, r5
    2388:       25fa            movs    r5,#250    ; 0xfa
    238a:       6848            ldr     r0, [r1, #4]
    238c:       00ad            lsls    r5, r5, #2
    238e:       1b86            subs    r6, r0, r6
    2390:       4807            ldr     r0, [pc, #28]    ; (0x23b0)
    2392:       436b            muls    r3, r5
    2394:       4370            muls    r0, r6
    2396:       0d00            lsrs    r0, r0, #20
    2398:       18c0            adds    r0, r0, r3
    239a:       bdfe            pop    {r1, r2, r3, r4, r5, r6, r7, pc}
    239c:       003d            movs    r5, r7
    239e:       0013            movs    r3, r2
    23a0:       0006            movs    r6, r0
    23a2:       e7e3            b.n    0x236c
    23a4:       0434            lsls    r4, r6, #16
    23a6:       2000            movs    r0,#0
    23a8:       e010            b.n    0x23cc
    23aa:       e000            b.n    0x23ae
    23ac:       ed00 e000       nop    
    23b0:       5555            strb    r5, [r2, r5]
    23b2:       0000            movs    r0, r0
    23b4:       b570            push   {r4, r5, r6,lr}
    23b6:       1e04            subs    r4, r0, #0
    23b8:       d011            beq.n  0x23de
    23ba:       f7ff ffcb       bl     0x2354
    23be:       26fa            movs    r6,#250    ; 0xfa
    23c0:       0005            movs    r5, r0
    23c2:       00b6            lsls    r6, r6, #2
    23c4:       f000 f816       bl     0x23f4
    23c8:       f7ff ffc4       bl     0x2354
    23cc:       1b40            subs    r0, r0, r5
    23ce:       42b0            cmp     r0, r6
    23d0:       d3f8            bcc.n  0x23c4
    23d2:       23fa            movs    r3,#250    ; 0xfa
    23d4:       3c01            subs    r4, #1
    23d6:       009b            lsls    r3, r3, #2
    23d8:       18ed            adds    r5, r5, r3
    23da:       2c00            cmp     r4,#0
    23dc:       d1f4            bne.n  0x23c8
    23de:       bd70            pop    {r4, r5, r6, pc}
    23e0:       b510            push   {r4,lr}
    23e2:       4a03            ldr     r2, [pc, #12]    ; (0x23f0)
    23e4:       6813            ldr     r3, [r2, #0]
    23e6:       3301            adds    r3, #1
    23e8:       6013            str     r3, [r2, #0]
    23ea:       f000 fa77       bl     0x28dc
    23ee:       bd10            pop    {r4, pc}
    23f0:       0434            lsls    r4, r6, #16
    23f2:       2000            movs    r0,#0
    23f4:       4770            bx      lr
    23f6:       2000            movs    r0,#0
    23f8:       4770            bx      lr
    23fa:       0000            movs    r0, r0
    23fc:       221e            movs    r2,#30
    23fe:       b570            push   {r4, r5, r6,lr}
    2400:       4846            ldr     r0, [pc, #280]    ; (0x251c)
    2402:       4947            ldr     r1, [pc, #284]    ; (0x2520)
    2404:       6843            ldr     r3, [r0, #4]
    2406:       4393            bics    r3, r2
    2408:       3a1c            subs    r2, #28
    240a:       4313            orrs    r3, r2
    240c:       6043            str     r3, [r0, #4]
    240e:       2308            movs    r3,#8
    2410:       698c            ldr     r4, [r1, #24]
    2412:       4323            orrs    r3, r4
    2414:       618b            str     r3, [r1, #24]
    2416:       4c43            ldr     r4, [pc, #268]    ; (0x2524)
    2418:       4b43            ldr     r3, [pc, #268]    ; (0x2528)
    241a:       829c            strh    r4, [r3, #20]
    241c:       8a9c            ldrh    r4, [r3, #20]
    241e:       4314            orrs    r4, r2
    2420:       829c            strh    r4, [r3, #20]
    2422:       68dc            ldr     r4, [r3, #12]
    2424:       4214            tst     r4, r2
    2426:       d0fc            beq.n  0x2422
    2428:       2401            movs    r4,#1
    242a:       4a40            ldr     r2, [pc, #256]    ; (0x252c)
    242c:       7014            strb    r4, [r2, #0]
    242e:       7815            ldrb    r5, [r2, #0]
    2430:       4225            tst     r5, r4
    2432:       d003            beq.n  0x243c
    2434:       7855            ldrb    r5, [r2, #1]
    2436:       b26d            sxtb    r5, r5
    2438:       2d00            cmp     r5,#0
    243a:       dbf8            blt.n  0x242e
    243c:       2401            movs    r4,#1
    243e:       6094            str     r4, [r2, #8]
    2440:       7854            ldrb    r4, [r2, #1]
    2442:       b264            sxtb    r4, r4
    2444:       2c00            cmp     r4,#0
    2446:       dbfb            blt.n  0x2440
    2448:       4c39            ldr     r4, [pc, #228]    ; (0x2530)
    244a:       6054            str     r4, [r2, #4]
    244c:       7854            ldrb    r4, [r2, #1]
    244e:       b264            sxtb    r4, r4
    2450:       2c00            cmp     r4,#0
    2452:       dbfb            blt.n  0x244c
    2454:       2482            movs    r4,#130    ; 0x82
    2456:       01e4            lsls    r4, r4, #7
    2458:       8054            strh    r4, [r2, #2]
    245a:       7854            ldrb    r4, [r2, #1]
    245c:       b264            sxtb    r4, r4
    245e:       2c00            cmp     r4,#0
    2460:       dbfb            blt.n  0x245a
    2462:       2402            movs    r4,#2
    2464:       849c            strh    r4, [r3, #36]    ; 0x24
    2466:       340e            adds    r4, #14
    2468:       68dd            ldr     r5, [r3, #12]
    246a:       4225            tst     r5, r4
    246c:       d0fc            beq.n  0x2468
    246e:       4c31            ldr     r4, [pc, #196]    ; (0x2534)
    2470:       62dc            str     r4, [r3, #44]    ; 0x2c
    2472:       2410            movs    r4,#16
    2474:       68dd            ldr     r5, [r3, #12]
    2476:       4225            tst     r5, r4
    2478:       d0fc            beq.n  0x2474
    247a:       8c9d            ldrh    r5, [r3, #36]    ; 0x24
    247c:       4c2e            ldr     r4, [pc, #184]    ; (0x2538)
    247e:       432c            orrs    r4, r5
    2480:       849c            strh    r4, [r3, #36]    ; 0x24
    2482:       2410            movs    r4,#16
    2484:       68dd            ldr     r5, [r3, #12]
    2486:       4225            tst     r5, r4
    2488:       d0fc            beq.n  0x2484
    248a:       2402            movs    r4,#2
    248c:       8c9d            ldrh    r5, [r3, #36]    ; 0x24
    248e:       2680            movs    r6,#128    ; 0x80
    2490:       432c            orrs    r4, r5
    2492:       849c            strh    r4, [r3, #36]    ; 0x24
    2494:       2440            movs    r4,#64    ; 0x40
    2496:       68dd            ldr     r5, [r3, #12]
    2498:       4235            tst     r5, r6
    249a:       d0fc            beq.n  0x2496
    249c:       68dd            ldr     r5, [r3, #12]
    249e:       4225            tst     r5, r4
    24a0:       d0f9            beq.n  0x2496
    24a2:       2410            movs    r4,#16
    24a4:       68dd            ldr     r5, [r3, #12]
    24a6:       4225            tst     r5, r4
    24a8:       d0fc            beq.n  0x24a4
    24aa:       2400            movs    r4,#0
    24ac:       6094            str     r4, [r2, #8]
    24ae:       7854            ldrb    r4, [r2, #1]
    24b0:       b264            sxtb    r4, r4
    24b2:       2c00            cmp     r4,#0
    24b4:       dbfb            blt.n  0x24ae
    24b6:       4c21            ldr     r4, [pc, #132]    ; (0x253c)
    24b8:       6054            str     r4, [r2, #4]
    24ba:       7854            ldrb    r4, [r2, #1]
    24bc:       b264            sxtb    r4, r4
    24be:       2c00            cmp     r4,#0
    24c0:       dbfb            blt.n  0x24ba
    24c2:       6a1c            ldr     r4, [r3, #32]
    24c4:       4d1e            ldr     r5, [pc, #120]    ; (0x2540)
    24c6:       402c            ands    r4, r5
    24c8:       2580            movs    r5,#128    ; 0x80
    24ca:       621c            str     r4, [r3, #32]
    24cc:       6a1c            ldr     r4, [r3, #32]
    24ce:       43ac            bics    r4, r5
    24d0:       621c            str     r4, [r3, #32]
    24d2:       2303            movs    r3,#3
    24d4:       6093            str     r3, [r2, #8]
    24d6:       4b1b            ldr     r3, [pc, #108]    ; (0x2544)
    24d8:       6053            str     r3, [r2, #4]
    24da:       7853            ldrb    r3, [r2, #1]
    24dc:       b25b            sxtb    r3, r3
    24de:       2b00            cmp     r3,#0
    24e0:       dbfb            blt.n  0x24da
    24e2:       2300            movs    r3,#0
    24e4:       24ff            movs    r4,#255    ; 0xff
    24e6:       720b            strb    r3, [r1, #8]
    24e8:       4a17            ldr     r2, [pc, #92]    ; (0x2548)
    24ea:       724b            strb    r3, [r1, #9]
    24ec:       728b            strb    r3, [r1, #10]
    24ee:       72cb            strb    r3, [r1, #11]
    24f0:       4b16            ldr     r3, [pc, #88]    ; (0x254c)
    24f2:       601a            str     r2, [r3, #0]
    24f4:       4b16            ldr     r3, [pc, #88]    ; (0x2550)
    24f6:       4a17            ldr     r2, [pc, #92]    ; (0x2554)
    24f8:       681b            ldr     r3, [r3, #0]
    24fa:       6811            ldr     r1, [r2, #0]
    24fc:       069a            lsls    r2, r3, #26
    24fe:       015b            lsls    r3, r3, #5
    2500:       0ec9            lsrs    r1, r1, #27
    2502:       4023            ands    r3, r4
    2504:       0f52            lsrs    r2, r2, #29
    2506:       0212            lsls    r2, r2, #8
    2508:       430b            orrs    r3, r1
    250a:       4313            orrs    r3, r2
    250c:       4a12            ldr     r2, [pc, #72]    ; (0x2558)
    250e:       8513            strh    r3, [r2, #40]    ; 0x28
    2510:       2380            movs    r3,#128    ; 0x80
    2512:       6842            ldr     r2, [r0, #4]
    2514:       4313            orrs    r3, r2
    2516:       6043            str     r3, [r0, #4]
    2518:       bd70            pop    {r4, r5, r6, pc}
    251a:       46c0            nop               ; (mov r8, r8)
    251c:       4000            ands    r0, r0
    251e:       4100            asrs    r0, r0
    2520:       0400            lsls    r0, r0, #16
    2522:       4000            ands    r0, r0
    2524:       060c            lsls    r4, r1, #24
    2526:       0000            movs    r0, r0
    2528:       0800            lsrs    r0, r0, #32
    252a:       4000            ands    r0, r0
    252c:       0c00            lsrs    r0, r0, #16
    252e:       4000            ands    r0, r0
    2530:       0501            lsls    r1, r0, #20
    2532:       0001            movs    r1, r0
    2534:       05b9            lsls    r1, r7, #22
    2536:       7dff            ldrb    r7, [r7, #23]
    2538:       0a04            lsrs    r4, r0, #8
    253a:       0000            movs    r0, r0
    253c:       0700            lsls    r0, r0, #28
    253e:       0003            movs    r3, r0
    2540:       fcff ffff       nop    
    2544:       0603            lsls    r3, r0, #24
    2546:       0001            movs    r1, r0
    2548:       6c00            ldr     r0, [r0, #64]    ; 0x40
    254a:       02dc            lsls    r4, r3, #11
    254c:       0000            movs    r0, r0
    254e:       2000            movs    r0,#0
    2550:       6024            str     r4, [r4, #0]
    2552:       0080            lsls    r0, r0, #2
    2554:       6020            str     r0, [r4, #0]
    2556:       0080            lsls    r0, r0, #2
    2558:       4000            ands    r0, r0
    255a:       4200            tst     r0, r0
    255c:       21fa            movs    r1,#250    ; 0xfa
    255e:       4b2e            ldr     r3, [pc, #184]    ; (0x2618)
    2560:       b510            push   {r4,lr}
    2562:       6818            ldr     r0, [r3, #0]
    2564:       0089            lsls    r1, r1, #2
    2566:       f001 ffdb       bl     0x4520
    256a:       2380            movs    r3,#128    ; 0x80
    256c:       3801            subs    r0, #1
    256e:       045b            lsls    r3, r3, #17
    2570:       4298            cmp     r0, r3
    2572:       d24f            bcs.n  0x2614
    2574:       4929            ldr     r1, [pc, #164]    ; (0x261c)
    2576:       4a2a            ldr     r2, [pc, #168]    ; (0x2620)
    2578:       6048            str     r0, [r1, #4]
    257a:       20c0            movs    r0,#192    ; 0xc0
    257c:       6a13            ldr     r3, [r2, #32]
    257e:       0600            lsls    r0, r0, #24
    2580:       021b            lsls    r3, r3, #8
    2582:       0a1b            lsrs    r3, r3, #8
    2584:       4303            orrs    r3, r0
    2586:       6213            str     r3, [r2, #32]
    2588:       2300            movs    r3,#0
    258a:       608b            str     r3, [r1, #8]
    258c:       3307            adds    r3, #7
    258e:       600b            str     r3, [r1, #0]
    2590:       2180            movs    r1,#128    ; 0x80
    2592:       6a13            ldr     r3, [r2, #32]
    2594:       0609            lsls    r1, r1, #24
    2596:       021b            lsls    r3, r3, #8
    2598:       0a1b            lsrs    r3, r3, #8
    259a:       430b            orrs    r3, r1
    259c:       6213            str     r3, [r2, #32]
    259e:       22fc            movs    r2,#252    ; 0xfc
    25a0:       4b20            ldr     r3, [pc, #128]    ; (0x2624)
    25a2:       6a19            ldr     r1, [r3, #32]
    25a4:       430a            orrs    r2, r1
    25a6:       621a            str     r2, [r3, #32]
    25a8:       22ff            movs    r2,#255    ; 0xff
    25aa:       6a19            ldr     r1, [r3, #32]
    25ac:       0212            lsls    r2, r2, #8
    25ae:       430a            orrs    r2, r1
    25b0:       621a            str     r2, [r3, #32]
    25b2:       22a0            movs    r2,#160    ; 0xa0
    25b4:       6a19            ldr     r1, [r3, #32]
    25b6:       02d2            lsls    r2, r2, #11
    25b8:       430a            orrs    r2, r1
    25ba:       621a            str     r2, [r3, #32]
    25bc:       4b1a            ldr     r3, [pc, #104]    ; (0x2628)
    25be:       001c            movs    r4, r3
    25c0:       785a            ldrb    r2, [r3, #1]
    25c2:       b252            sxtb    r2, r2
    25c4:       2a00            cmp     r2,#0
    25c6:       dbfb            blt.n  0x25c0
    25c8:       4a18            ldr     r2, [pc, #96]    ; (0x262c)
    25ca:       805a            strh    r2, [r3, #2]
    25cc:       4b18            ldr     r3, [pc, #96]    ; (0x2630)
    25ce:       001a            movs    r2, r3
    25d0:       7e59            ldrb    r1, [r3, #25]
    25d2:       09c9            lsrs    r1, r1, #7
    25d4:       2901            cmp     r1,#1
    25d6:       d0fb            beq.n  0x25d0
    25d8:       21c8            movs    r1,#200    ; 0xc8
    25da:       0089            lsls    r1, r1, #2
    25dc:       8099            strh    r1, [r3, #4]
    25de:       2105            movs    r1,#5
    25e0:       70d9            strb    r1, [r3, #3]
    25e2:       7e53            ldrb    r3, [r2, #25]
    25e4:       09db            lsrs    r3, r3, #7
    25e6:       2b01            cmp     r3,#1
    25e8:       d0fb            beq.n  0x25e2
    25ea:       23c0            movs    r3,#192    ; 0xc0
    25ec:       2000            movs    r0,#0
    25ee:       015b            lsls    r3, r3, #5
    25f0:       6113            str     r3, [r2, #16]
    25f2:       7090            strb    r0, [r2, #2]
    25f4:       f000 f822       bl     0x263c
    25f8:       7863            ldrb    r3, [r4, #1]
    25fa:       b25b            sxtb    r3, r3
    25fc:       2b00            cmp     r3,#0
    25fe:       dbfb            blt.n  0x25f8
    2600:       4b0c            ldr     r3, [pc, #48]    ; (0x2634)
    2602:       4a0d            ldr     r2, [pc, #52]    ; (0x2638)
    2604:       8063            strh    r3, [r4, #2]
    2606:       79d3            ldrb    r3, [r2, #7]
    2608:       09db            lsrs    r3, r3, #7
    260a:       2b01            cmp     r3,#1
    260c:       d0fb            beq.n  0x2606
    260e:       2341            movs    r3,#65    ; 0x41
    2610:       7053            strb    r3, [r2, #1]
    2612:       bd10            pop    {r4, pc}
    2614:       e7fe            b.n    0x2614
    2616:       46c0            nop               ; (mov r8, r8)
    2618:       0000            movs    r0, r0
    261a:       2000            movs    r0,#0
    261c:       e010            b.n    0x2640
    261e:       e000            b.n    0x2622
    2620:       ed00 e000       nop    
    2624:       0400            lsls    r0, r0, #16
    2626:       4000            ands    r0, r0
    2628:       0c00            lsrs    r0, r0, #16
    262a:       4000            ands    r0, r0
    262c:       401e            ands    r6, r3
    262e:       0000            movs    r0, r0
    2630:       4000            ands    r0, r0
    2632:       4200            tst     r0, r0
    2634:       4021            ands    r1, r4
    2636:       0000            movs    r0, r0
    2638:       4800            ldr     r0, [pc, #0]    ; (0x263c)
    263a:       4200            tst     r0, r0
    263c:       491f            ldr     r1, [pc, #124]    ; (0x26bc)
    263e:       b500            push   {lr}
    2640:       000b            movs    r3, r1
    2642:       7e4a            ldrb    r2, [r1, #25]
    2644:       09d2            lsrs    r2, r2, #7
    2646:       2a01            cmp     r2,#1
    2648:       d0fb            beq.n  0x2642
    264a:       3801            subs    r0, #1
    264c:       280a            cmp     r0,#10
    264e:       d82f            bhi.n  0x26b0
    2650:       f001 ff5c       bl     0x450c
    2654:       2e1b            cmp     r6,#27
    2656:       2e2e            cmp     r6,#46     ; 0x2e
    2658:       2e2e            cmp     r6,#46     ; 0x2e
    265a:       2e06            cmp     r6,#6
    265c:       242e            movs    r4,#46    ; 0x2e
    265e:       0011            movs    r1, r2
    2660:       691a            ldr     r2, [r3, #16]
    2662:       4917            ldr     r1, [pc, #92]    ; (0x26c0)
    2664:       400a            ands    r2, r1
    2666:       210f            movs    r1,#15
    2668:       611a            str     r2, [r3, #16]
    266a:       785a            ldrb    r2, [r3, #1]
    266c:       438a            bics    r2, r1
    266e:       0011            movs    r1, r2
    2670:       2201            movs    r2,#1
    2672:       430a            orrs    r2, r1
    2674:       e010            b.n    0x2698
    2676:       691a            ldr     r2, [r3, #16]
    2678:       4911            ldr     r1, [pc, #68]    ; (0x26c0)
    267a:       400a            ands    r2, r1
    267c:       210f            movs    r1,#15
    267e:       611a            str     r2, [r3, #16]
    2680:       785a            ldrb    r2, [r3, #1]
    2682:       438a            bics    r2, r1
    2684:       0011            movs    r1, r2
    2686:       2203            movs    r2,#3
    2688:       e7f3            b.n    0x2672
    268a:       691a            ldr     r2, [r3, #16]
    268c:       490c            ldr     r1, [pc, #48]    ; (0x26c0)
    268e:       400a            ands    r2, r1
    2690:       210f            movs    r1,#15
    2692:       611a            str     r2, [r3, #16]
    2694:       785a            ldrb    r2, [r3, #1]
    2696:       438a            bics    r2, r1
    2698:       705a            strb    r2, [r3, #1]
    269a:       bd00            pop    { pc}
    269c:       691a            ldr     r2, [r3, #16]
    269e:       4908            ldr     r1, [pc, #32]    ; (0x26c0)
    26a0:       400a            ands    r2, r1
    26a2:       210f            movs    r1,#15
    26a4:       611a            str     r2, [r3, #16]
    26a6:       785a            ldrb    r2, [r3, #1]
    26a8:       438a            bics    r2, r1
    26aa:       0011            movs    r1, r2
    26ac:       2202            movs    r2,#2
    26ae:       e7e0            b.n    0x2672
    26b0:       22f0            movs    r2,#240    ; 0xf0
    26b2:       6919            ldr     r1, [r3, #16]
    26b4:       0512            lsls    r2, r2, #20
    26b6:       430a            orrs    r2, r1
    26b8:       e7f3            b.n    0x26a2
    26ba:       46c0            nop               ; (mov r8, r8)
    26bc:       4000            ands    r0, r0
    26be:       4200            tst     r0, r0
    26c0:       ffff f0ff       nop    
    26c4:       2318            movs    r3,#24
    26c6:       b510            push   {r4,lr}
    26c8:       2408            movs    r4,#8
    26ca:       4358            muls    r0, r3
    26cc:       4a13            ldr     r2, [pc, #76]    ; (0x271c)
    26ce:       1813            adds    r3, r2, r0
    26d0:       571c            ldrsb   r4, [r3, r4]
    26d2:       3401            adds    r4, #1
    26d4:       d012            beq.n  0x26fc
    26d6:       2401            movs    r4,#1
    26d8:       685b            ldr     r3, [r3, #4]
    26da:       5682            ldrsb   r2, [r0, r2]
    26dc:       409c            lsls    r4, r3
    26de:       2903            cmp     r1,#3
    26e0:       d80c            bhi.n  0x26fc
    26e2:       0008            movs    r0, r1
    26e4:       490e            ldr     r1, [pc, #56]    ; (0x2720)
    26e6:       01d2            lsls    r2, r2, #7
    26e8:       1852            adds    r2, r2, r1
    26ea:       18d3            adds    r3, r2, r3
    26ec:       3340            adds    r3, #64     ; 0x40
    26ee:       f001 ff0d       bl     0x450c
    26f2:       1002            asrs    r2, r0, #32
    26f4:       0b06            lsrs    r6, r0, #12
    26f6:       2102            movs    r1,#2
    26f8:       7019            strb    r1, [r3, #0]
    26fa:       6054            str     r4, [r2, #4]
    26fc:       bd10            pop    {r4, pc}
    26fe:       2106            movs    r1,#6
    2700:       7019            strb    r1, [r3, #0]
    2702:       6054            str     r4, [r2, #4]
    2704:       6194            str     r4, [r2, #24]
    2706:       e7f9            b.n    0x26fc
    2708:       2106            movs    r1,#6
    270a:       7019            strb    r1, [r3, #0]
    270c:       6054            str     r4, [r2, #4]
    270e:       6154            str     r4, [r2, #20]
    2710:       e7f4            b.n    0x26fc
    2712:       2142            movs    r1,#66    ; 0x42
    2714:       7019            strb    r1, [r3, #0]
    2716:       6094            str     r4, [r2, #8]
    2718:       e7f0            b.n    0x26fc
    271a:       46c0            nop               ; (mov r8, r8)
    271c:       49e8            ldr     r1, [pc, #928]    ; (0x2ac0)
    271e:       0000            movs    r0, r0
    2720:       4400            add     r0, r0
    2722:       4100            asrs    r0, r0
    2724:       2318            movs    r3,#24
    2726:       b5f0            push   {r4, r5, r6, r7,lr}
    2728:       2408            movs    r4,#8
    272a:       4358            muls    r0, r3
    272c:       4a11            ldr     r2, [pc, #68]    ; (0x2774)
    272e:       1813            adds    r3, r2, r0
    2730:       571c            ldrsb   r4, [r3, r4]
    2732:       3401            adds    r4, #1
    2734:       d01b            beq.n  0x276e
    2736:       2601            movs    r6,#1
    2738:       0035            movs    r5, r6
    273a:       685f            ldr     r7, [r3, #4]
    273c:       5683            ldrsb   r3, [r0, r2]
    273e:       40bd            lsls    r5, r7
    2740:       4a0d            ldr     r2, [pc, #52]    ; (0x2778)
    2742:       01db            lsls    r3, r3, #7
    2744:       189a            adds    r2, r3, r2
    2746:       6890            ldr     r0, [r2, #8]
    2748:       4205            tst     r5, r0
    274a:       d10b            bne.n  0x2764
    274c:       000c            movs    r4, r1
    274e:       1e60            subs    r0, r4, #1
    2750:       4184            sbcs    r4, r0
    2752:       19d2            adds    r2, r2, r7
    2754:       3240            adds    r2, #64     ; 0x40
    2756:       7810            ldrb    r0, [r2, #0]
    2758:       4034            ands    r4, r6
    275a:       3603            adds    r6, #3
    275c:       00a4            lsls    r4, r4, #2
    275e:       43b0            bics    r0, r6
    2760:       4320            orrs    r0, r4
    2762:       7010            strb    r0, [r2, #0]
    2764:       4a04            ldr     r2, [pc, #16]    ; (0x2778)
    2766:       189b            adds    r3, r3, r2
    2768:       2900            cmp     r1,#0
    276a:       d101            bne.n  0x2770
    276c:       615d            str     r5, [r3, #20]
    276e:       bdf0            pop    {r4, r5, r6, r7, pc}
    2770:       619d            str     r5, [r3, #24]
    2772:       e7fc            b.n    0x276e
    2774:       49e8            ldr     r1, [pc, #928]    ; (0x2b18)
    2776:       0000            movs    r0, r0
    2778:       4400            add     r0, r0
    277a:       4100            asrs    r0, r0
    277c:       2318            movs    r3,#24
    277e:       b570            push   {r4, r5, r6,lr}
    2780:       2608            movs    r6,#8
    2782:       4343            muls    r3, r0
    2784:       4a2a            ldr     r2, [pc, #168]    ; (0x2830)
    2786:       18d5            adds    r5, r2, r3
    2788:       57ae            ldrsb   r6, [r5, r6]
    278a:       0034            movs    r4, r6
    278c:       3601            adds    r6, #1
    278e:       d007            beq.n  0x27a0
    2790:       2907            cmp     r1,#7
    2792:       dc07            bgt.n  0x27a4
    2794:       2900            cmp     r1,#0
    2796:       da1d            bge.n  0x27d4
    2798:       3101            adds    r1, #1
    279a:       424c            negs    r4, r1
    279c:       414c            adcs    r4, r1
    279e:       4264            negs    r4, r4
    27a0:       0020            movs    r0, r4
    27a2:       bd70            pop    {r4, r5, r6, pc}
    27a4:       000b            movs    r3, r1
    27a6:       3b08            subs    r3, #8
    27a8:       b2db            uxtb    r3, r3
    27aa:       2400            movs    r4,#0
    27ac:       2b03            cmp     r3,#3
    27ae:       d8f7            bhi.n  0x27a0
    27b0:       2909            cmp     r1,#9
    27b2:       d103            bne.n  0x27bc
    27b4:       0021            movs    r1, r4
    27b6:       f7ff ff85       bl     0x26c4
    27ba:       e7f1            b.n    0x27a0
    27bc:       290a            cmp     r1,#10
    27be:       d104            bne.n  0x27ca
    27c0:       3908            subs    r1, #8
    27c2:       f7ff ff7f       bl     0x26c4
    27c6:       2400            movs    r4,#0
    27c8:       e7ea            b.n    0x27a0
    27ca:       2400            movs    r4,#0
    27cc:       290b            cmp     r1,#11
    27ce:       d1e7            bne.n  0x27a0
    27d0:       390a            subs    r1, #10
    27d2:       e7f0            b.n    0x27b6
    27d4:       686c            ldr     r4, [r5, #4]
    27d6:       2501            movs    r5,#1
    27d8:       0020            movs    r0, r4
    27da:       569b            ldrsb   r3, [r3, r2]
    27dc:       b2c9            uxtb    r1, r1
    27de:       0862            lsrs    r2, r4, #1
    27e0:       4028            ands    r0, r5
    27e2:       01db            lsls    r3, r3, #7
    27e4:       422c            tst     r4, r5
    27e6:       d011            beq.n  0x280c
    27e8:       4812            ldr     r0, [pc, #72]    ; (0x2834)
    27ea:       350e            adds    r5, #14
    27ec:       181b            adds    r3, r3, r0
    27ee:       189a            adds    r2, r3, r2
    27f0:       3230            adds    r2, #48     ; 0x30
    27f2:       7810            ldrb    r0, [r2, #0]
    27f4:       0109            lsls    r1, r1, #4
    27f6:       4028            ands    r0, r5
    27f8:       4301            orrs    r1, r0
    27fa:       b2c9            uxtb    r1, r1
    27fc:       7011            strb    r1, [r2, #0]
    27fe:       2241            movs    r2,#65    ; 0x41
    2800:       191b            adds    r3, r3, r4
    2802:       3340            adds    r3, #64     ; 0x40
    2804:       7819            ldrb    r1, [r3, #0]
    2806:       430a            orrs    r2, r1
    2808:       701a            strb    r2, [r3, #0]
    280a:       e7dc            b.n    0x27c6
    280c:       260f            movs    r6,#15
    280e:       4d09            ldr     r5, [pc, #36]    ; (0x2834)
    2810:       195b            adds    r3, r3, r5
    2812:       189a            adds    r2, r3, r2
    2814:       3230            adds    r2, #48     ; 0x30
    2816:       7815            ldrb    r5, [r2, #0]
    2818:       191b            adds    r3, r3, r4
    281a:       43b5            bics    r5, r6
    281c:       4329            orrs    r1, r5
    281e:       7011            strb    r1, [r2, #0]
    2820:       2241            movs    r2,#65    ; 0x41
    2822:       3340            adds    r3, #64     ; 0x40
    2824:       7819            ldrb    r1, [r3, #0]
    2826:       0004            movs    r4, r0
    2828:       430a            orrs    r2, r1
    282a:       701a            strb    r2, [r3, #0]
    282c:       e7b8            b.n    0x27a0
    282e:       46c0            nop               ; (mov r8, r8)
    2830:       49e8            ldr     r1, [pc, #928]    ; (0x2bd4)
    2832:       0000            movs    r0, r0
    2834:       4400            add     r0, r0
    2836:       4100            asrs    r0, r0
    2838:       b5f8            push   {r3, r4, r5, r6, r7,lr}
    283a:       0005            movs    r5, r0
    283c:       000e            movs    r6, r1
    283e:       0017            movs    r7, r2
    2840:       2400            movs    r4,#0
    2842:       42bc            cmp     r4, r7
    2844:       d008            beq.n  0x2858
    2846:       682b            ldr     r3, [r5, #0]
    2848:       0028            movs    r0, r5
    284a:       5d31            ldrb    r1, [r6, r4]
    284c:       681b            ldr     r3, [r3, #0]
    284e:       4798            blx     r3
    2850:       2800            cmp     r0,#0
    2852:       d001            beq.n  0x2858
    2854:       3401            adds    r4, #1
    2856:       e7f4            b.n    0x2842
    2858:       0020            movs    r0, r4
    285a:       bdf8            pop    {r3, r4, r5, r6, r7, pc}
    285c:       b570            push   {r4, r5, r6,lr}
    285e:       0005            movs    r5, r0
    2860:       000c            movs    r4, r1
    2862:       1e08            subs    r0, r1, #0
    2864:       d007            beq.n  0x2876
    2866:       f002 f80f       bl     0x4888
    286a:       682b            ldr     r3, [r5, #0]
    286c:       0002            movs    r2, r0
    286e:       0021            movs    r1, r4
    2870:       0028            movs    r0, r5
    2872:       685b            ldr     r3, [r3, #4]
    2874:       4798            blx     r3
    2876:       bd70            pop    {r4, r5, r6, pc}
    2878:       b510            push   {r4,lr}
    287a:       6803            ldr     r3, [r0, #0]
    287c:       688a            ldr     r2, [r1, #8]
    287e:       685b            ldr     r3, [r3, #4]
    2880:       6809            ldr     r1, [r1, #0]
    2882:       4798            blx     r3
    2884:       bd10            pop    {r4, pc}
    2886:       0000            movs    r0, r0
    2888:       b510            push   {r4,lr}
    288a:       4902            ldr     r1, [pc, #8]    ; (0x2894)
    288c:       f7ff ffe6       bl     0x285c
    2890:       bd10            pop    {r4, pc}
    2892:       46c0            nop               ; (mov r8, r8)
    2894:       4df0            ldr     r5, [pc, #960]    ; (0x2c58)
    2896:       0000            movs    r0, r0
    2898:       b570            push   {r4, r5, r6,lr}
    289a:       0005            movs    r5, r0
    289c:       f7ff ffec       bl     0x2878
    28a0:       0004            movs    r4, r0
    28a2:       0028            movs    r0, r5
    28a4:       f7ff fff0       bl     0x2888
    28a8:       1820            adds    r0, r4, r0
    28aa:       bd70            pop    {r4, r5, r6, pc}
    28ac:       b570            push   {r4, r5, r6,lr}
    28ae:       0004            movs    r4, r0
    28b0:       f7ff ffd4       bl     0x285c
    28b4:       0005            movs    r5, r0
    28b6:       0020            movs    r0, r4
    28b8:       f7ff ffe6       bl     0x2888
    28bc:       1940            adds    r0, r0, r5
    28be:       bd70            pop    {r4, r5, r6, pc}
    28c0:       4b01            ldr     r3, [pc, #4]    ; (0x28c8)
    28c2:       6018            str     r0, [r3, #0]
    28c4:       4770            bx      lr
    28c6:       46c0            nop               ; (mov r8, r8)
    28c8:       0004            movs    r4, r0
    28ca:       2000            movs    r0,#0
    28cc:       2201            movs    r2,#1
    28ce:       4b02            ldr     r3, [pc, #8]    ; (0x28d8)
    28d0:       4252            negs    r2, r2
    28d2:       601a            str     r2, [r3, #0]
    28d4:       4770            bx      lr
    28d6:       46c0            nop               ; (mov r8, r8)
    28d8:       0004            movs    r4, r0
    28da:       2000            movs    r0,#0
    28dc:       4a16            ldr     r2, [pc, #88]    ; (0x2938)
    28de:       b510            push   {r4,lr}
    28e0:       6813            ldr     r3, [r2, #0]
    28e2:       1c59            adds    r1, r3, #1
    28e4:       d027            beq.n  0x2936
    28e6:       3b01            subs    r3, #1
    28e8:       6013            str     r3, [r2, #0]
    28ea:       2b00            cmp     r3,#0
    28ec:       d123            bne.n  0x2936
    28ee:       b672            cpsid   i 
    28f0:       2281            movs    r2,#129    ; 0x81
    28f2:       4b12            ldr     r3, [pc, #72]    ; (0x293c)
    28f4:       0092            lsls    r2, r2, #2
    28f6:       3304            adds    r3, #4
    28f8:       4293            cmp     r3, r2
    28fa:       d313            bcc.n  0x2924
    28fc:       4a10            ldr     r2, [pc, #64]    ; (0x2940)
    28fe:       2101            movs    r1,#1
    2900:       0010            movs    r0, r2
    2902:       7d14            ldrb    r4, [r2, #20]
    2904:       420c            tst     r4, r1
    2906:       d0fc            beq.n  0x2902
    2908:       2120            movs    r1,#32
    290a:       8b14            ldrh    r4, [r2, #24]
    290c:       31ff            adds    r1, #255     ; 0xff
    290e:       089b            lsrs    r3, r3, #2
    2910:       005b            lsls    r3, r3, #1
    2912:       4321            orrs    r1, r4
    2914:       8311            strh    r1, [r2, #24]
    2916:       61d3            str     r3, [r2, #28]
    2918:       4b0a            ldr     r3, [pc, #40]    ; (0x2944)
    291a:       8013            strh    r3, [r2, #0]
    291c:       2301            movs    r3,#1
    291e:       7d02            ldrb    r2, [r0, #20]
    2920:       421a            tst     r2, r3
    2922:       d0fc            beq.n  0x291e
    2924:       f3bf 8f4f       dsb    sy
    2928:       4b07            ldr     r3, [pc, #28]    ; (0x2948)
    292a:       4a08            ldr     r2, [pc, #32]    ; (0x294c)
    292c:       60da            str     r2, [r3, #12]
    292e:       f3bf 8f4f       dsb    sy
    2932:       46c0            nop               ; (mov r8, r8)
    2934:       e7fd            b.n    0x2932
    2936:       bd10            pop    {r4, pc}
    2938:       0004            movs    r4, r0
    293a:       2000            movs    r0,#0
    293c:       2000            movs    r0,#0
    293e:       0000            movs    r0, r0
    2940:       4000            ands    r0, r0
    2942:       4100            asrs    r0, r0
    2944:       a502            add    r5, pc, #8; (adr r5, 0x2950)
    2946:       ffff ed00       nop    
    294a:       e000            b.n    0x294e
    294c:       0004            movs    r4, r0
    294e:       05fa            lsls    r2, r7, #23
    2950:       6001            str     r1, [r0, #0]
    2952:       4770            bx      lr
    2954:       4694            mov     ip, r2
    2956:       b5f0            push   {r4, r5, r6, r7,lr}
    2958:       ac05            add     r4, sp, #20
    295a:       7825            ldrb    r5, [r4, #0]
    295c:       1e9c            subs    r4, r3, #2
    295e:       1e62            subs    r2, r4, #1
    2960:       4194            sbcs    r4, r2
    2962:       4662            mov     r2, ip
    2964:       6806            ldr     r6, [r0, #0]
    2966:       0792            lsls    r2, r2, #30
    2968:       6837            ldr     r7, [r6, #0]
    296a:       0624            lsls    r4, r4, #24
    296c:       433a            orrs    r2, r7
    296e:       4322            orrs    r2, r4
    2970:       2407            movs    r4,#7
    2972:       6032            str     r2, [r6, #0]
    2974:       6800            ldr     r0, [r0, #0]
    2976:       4021            ands    r1, r4
    2978:       01ad            lsls    r5, r5, #6
    297a:       2400            movs    r4,#0
    297c:       6842            ldr     r2, [r0, #4]
    297e:       4329            orrs    r1, r5
    2980:       2b02            cmp     r3,#2
    2982:       d000            beq.n  0x2986
    2984:       035c            lsls    r4, r3, #13
    2986:       430a            orrs    r2, r1
    2988:       4322            orrs    r2, r4
    298a:       6042            str     r2, [r0, #4]
    298c:       bdf0            pop    {r4, r5, r6, r7, pc}
    298e:       b530            push   {r4, r5,lr}
    2990:       25c0            movs    r5,#192    ; 0xc0
    2992:       6803            ldr     r3, [r0, #0]
    2994:       03ad            lsls    r5, r5, #14
    2996:       681c            ldr     r4, [r3, #0]
    2998:       0512            lsls    r2, r2, #20
    299a:       402a            ands    r2, r5
    299c:       4322            orrs    r2, r4
    299e:       24c0            movs    r4,#192    ; 0xc0
    29a0:       0409            lsls    r1, r1, #16
    29a2:       02a4            lsls    r4, r4, #10
    29a4:       4021            ands    r1, r4
    29a6:       430a            orrs    r2, r1
    29a8:       601a            str     r2, [r3, #0]
    29aa:       6803            ldr     r3, [r0, #0]
    29ac:       685a            ldr     r2, [r3, #4]
    29ae:       4314            orrs    r4, r2
    29b0:       605c            str     r4, [r3, #4]
    29b2:       bd30            pop    {r4, r5, pc}
    29b4:       2301            movs    r3,#1
    29b6:       6802            ldr     r2, [r0, #0]
    29b8:       6811            ldr     r1, [r2, #0]
    29ba:       430b            orrs    r3, r1
    29bc:       6013            str     r3, [r2, #0]
    29be:       6803            ldr     r3, [r0, #0]
    29c0:       681a            ldr     r2, [r3, #0]
    29c2:       07d2            lsls    r2, r2, #31
    29c4:       d4fc            bmi.n  0x29c0
    29c6:       69da            ldr     r2, [r3, #28]
    29c8:       07d2            lsls    r2, r2, #31
    29ca:       d4f9            bmi.n  0x29c0
    29cc:       4770            bx      lr
    29ce:       2302            movs    r3,#2
    29d0:       6802            ldr     r2, [r0, #0]
    29d2:       6811            ldr     r1, [r2, #0]
    29d4:       430b            orrs    r3, r1
    29d6:       6013            str     r3, [r2, #0]
    29d8:       6802            ldr     r2, [r0, #0]
    29da:       69d3            ldr     r3, [r2, #28]
    29dc:       079b            lsls    r3, r3, #30
    29de:       d4fc            bmi.n  0x29da
    29e0:       4770            bx      lr
    29e2:       6803            ldr     r3, [r0, #0]
    29e4:       7e1a            ldrb    r2, [r3, #24]
    29e6:       07d2            lsls    r2, r2, #31
    29e8:       d402            bmi.n  0x29f0
    29ea:       7e1a            ldrb    r2, [r3, #24]
    29ec:       0792            lsls    r2, r2, #30
    29ee:       d5fc            bpl.n  0x29ea
    29f0:       4770            bx      lr
    29f2:       2200            movs    r2,#0
    29f4:       6803            ldr     r3, [r0, #0]
    29f6:       835a            strh    r2, [r3, #26]
    29f8:       4770            bx      lr
    29fa:       6803            ldr     r3, [r0, #0]
    29fc:       7e18            ldrb    r0, [r3, #24]
    29fe:       0740            lsls    r0, r0, #29
    2a00:       0fc0            lsrs    r0, r0, #31
    2a02:       4770            bx      lr
    2a04:       6803            ldr     r3, [r0, #0]
    2a06:       7e18            ldrb    r0, [r3, #24]
    2a08:       09c0            lsrs    r0, r0, #7
    2a0a:       4770            bx      lr
    2a0c:       2380            movs    r3,#128    ; 0x80
    2a0e:       6802            ldr     r2, [r0, #0]
    2a10:       425b            negs    r3, r3
    2a12:       7e11            ldrb    r1, [r2, #24]
    2a14:       430b            orrs    r3, r1
    2a16:       7613            strb    r3, [r2, #24]
    2a18:       4770            bx      lr
    2a1a:       6803            ldr     r3, [r0, #0]
    2a1c:       8b58            ldrh    r0, [r3, #26]
    2a1e:       0780            lsls    r0, r0, #30
    2a20:       0fc0            lsrs    r0, r0, #31
    2a22:       4770            bx      lr
    2a24:       2302            movs    r3,#2
    2a26:       6802            ldr     r2, [r0, #0]
    2a28:       8b51            ldrh    r1, [r2, #26]
    2a2a:       430b            orrs    r3, r1
    2a2c:       8353            strh    r3, [r2, #26]
    2a2e:       4770            bx      lr
    2a30:       6803            ldr     r3, [r0, #0]
    2a32:       7e18            ldrb    r0, [r3, #24]
    2a34:       07c0            lsls    r0, r0, #31
    2a36:       0fc0            lsrs    r0, r0, #31
    2a38:       4770            bx      lr
    2a3a:       6803            ldr     r3, [r0, #0]
    2a3c:       8d18            ldrh    r0, [r3, #40]    ; 0x28
    2a3e:       b2c0            uxtb    r0, r0
    2a40:       4770            bx      lr
    2a42:       6803            ldr     r3, [r0, #0]
    2a44:       7e1a            ldrb    r2, [r3, #24]
    2a46:       07d2            lsls    r2, r2, #31
    2a48:       d5fc            bpl.n  0x2a44
    2a4a:       b289            uxth    r1, r1
    2a4c:       2001            movs    r0,#1
    2a4e:       8519            strh    r1, [r3, #40]    ; 0x28
    2a50:       4770            bx      lr
    2a52:       2201            movs    r2,#1
    2a54:       6803            ldr     r3, [r0, #0]
    2a56:       759a            strb    r2, [r3, #22]
    2a58:       4770            bx      lr
    2a5a:       2201            movs    r2,#1
    2a5c:       6803            ldr     r3, [r0, #0]
    2a5e:       751a            strb    r2, [r3, #20]
    2a60:       4770            bx      lr
    2a62:       0000            movs    r0, r0
    2a64:       6803            ldr     r3, [r0, #0]
    2a66:       4a10            ldr     r2, [pc, #64]    ; (0x2aa8)
    2a68:       4293            cmp     r3, r2
    2a6a:       d013            beq.n  0x2a94
    2a6c:       4a0f            ldr     r2, [pc, #60]    ; (0x2aac)
    2a6e:       4293            cmp     r3, r2
    2a70:       d012            beq.n  0x2a98
    2a72:       4a0f            ldr     r2, [pc, #60]    ; (0x2ab0)
    2a74:       4293            cmp     r3, r2
    2a76:       d011            beq.n  0x2a9c
    2a78:       4a0e            ldr     r2, [pc, #56]    ; (0x2ab4)
    2a7a:       4293            cmp     r3, r2
    2a7c:       d010            beq.n  0x2aa0
    2a7e:       4a0e            ldr     r2, [pc, #56]    ; (0x2ab8)
    2a80:       4293            cmp     r3, r2
    2a82:       d00f            beq.n  0x2aa4
    2a84:       2001            movs    r0,#1
    2a86:       4a0d            ldr     r2, [pc, #52]    ; (0x2abc)
    2a88:       4240            negs    r0, r0
    2a8a:       4293            cmp     r3, r2
    2a8c:       d101            bne.n  0x2a92
    2a8e:       3006            adds    r0, #6
    2a90:       b240            sxtb    r0, r0
    2a92:       4770            bx      lr
    2a94:       2000            movs    r0,#0
    2a96:       e7fb            b.n    0x2a90
    2a98:       2001            movs    r0,#1
    2a9a:       e7f9            b.n    0x2a90
    2a9c:       2002            movs    r0,#2
    2a9e:       e7f7            b.n    0x2a90
    2aa0:       2003            movs    r0,#3
    2aa2:       e7f5            b.n    0x2a90
    2aa4:       2004            movs    r0,#4
    2aa6:       e7f3            b.n    0x2a90
    2aa8:       0800            lsrs    r0, r0, #32
    2aaa:       4200            tst     r0, r0
    2aac:       0c00            lsrs    r0, r0, #16
    2aae:       4200            tst     r0, r0
    2ab0:       1000            asrs    r0, r0, #32
    2ab2:       4200            tst     r0, r0
    2ab4:       1400            asrs    r0, r0, #16
    2ab6:       4200            tst     r0, r0
    2ab8:       1800            adds    r0, r0, r0
    2aba:       4200            tst     r0, r0
    2abc:       1c00            adds    r0, r0, #0
    2abe:       4200            tst     r0, r0
    2ac0:       b5f8            push   {r3, r4, r5, r6, r7,lr}
    2ac2:       f7ff ffcf       bl     0x2a64
    2ac6:       2800            cmp     r0,#0
    2ac8:       db2c            blt.n  0x2b24
    2aca:       4b1d            ldr     r3, [pc, #116]    ; (0x2b40)
    2acc:       00c0            lsls    r0, r0, #3
    2ace:       1818            adds    r0, r3, r0
    2ad0:       2305            movs    r3,#5
    2ad2:       7904            ldrb    r4, [r0, #4]
    2ad4:       56c3            ldrsb   r3, [r0, r3]
    2ad6:       2003            movs    r0,#3
    2ad8:       22ff            movs    r2,#255    ; 0xff
    2ada:       4018            ands    r0, r3
    2adc:       00c0            lsls    r0, r0, #3
    2ade:       4082            lsls    r2, r0
    2ae0:       21c0            movs    r1,#192    ; 0xc0
    2ae2:       43d2            mvns    r2, r2
    2ae4:       4081            lsls    r1, r0
    2ae6:       2b00            cmp     r3,#0
    2ae8:       db1d            blt.n  0x2b26
    2aea:       251f            movs    r5,#31
    2aec:       2001            movs    r0,#1
    2aee:       401d            ands    r5, r3
    2af0:       26c0            movs    r6,#192    ; 0xc0
    2af2:       40a8            lsls    r0, r5
    2af4:       4d13            ldr     r5, [pc, #76]    ; (0x2b44)
    2af6:       0076            lsls    r6, r6, #1
    2af8:       51a8            str     r0, [r5, r6]
    2afa:       26c0            movs    r6,#192    ; 0xc0
    2afc:       089b            lsrs    r3, r3, #2
    2afe:       009b            lsls    r3, r3, #2
    2b00:       195b            adds    r3, r3, r5
    2b02:       00b6            lsls    r6, r6, #2
    2b04:       599f            ldr     r7, [r3, r6]
    2b06:       403a            ands    r2, r7
    2b08:       4311            orrs    r1, r2
    2b0a:       5199            str     r1, [r3, r6]
    2b0c:       6028            str     r0, [r5, #0]
    2b0e:       233f            movs    r3,#63    ; 0x3f
    2b10:       4023            ands    r3, r4
    2b12:       2480            movs    r4,#128    ; 0x80
    2b14:       01e4            lsls    r4, r4, #7
    2b16:       431c            orrs    r4, r3
    2b18:       4b0b            ldr     r3, [pc, #44]    ; (0x2b48)
    2b1a:       805c            strh    r4, [r3, #2]
    2b1c:       785a            ldrb    r2, [r3, #1]
    2b1e:       b252            sxtb    r2, r2
    2b20:       2a00            cmp     r2,#0
    2b22:       dbfb            blt.n  0x2b1c
    2b24:       bdf8            pop    {r3, r4, r5, r6, r7, pc}
    2b26:       200f            movs    r0,#15
    2b28:       4003            ands    r3, r0
    2b2a:       3b08            subs    r3, #8
    2b2c:       4807            ldr     r0, [pc, #28]    ; (0x2b4c)
    2b2e:       089b            lsrs    r3, r3, #2
    2b30:       009b            lsls    r3, r3, #2
    2b32:       181b            adds    r3, r3, r0
    2b34:       69d8            ldr     r0, [r3, #28]
    2b36:       4002            ands    r2, r0
    2b38:       4311            orrs    r1, r2
    2b3a:       61d9            str     r1, [r3, #28]
    2b3c:       e7e7            b.n    0x2b0e
    2b3e:       46c0            nop               ; (mov r8, r8)
    2b40:       4df4            ldr     r5, [pc, #976]    ; (0x2f14)
    2b42:       0000            movs    r0, r0
    2b44:       e100            b.n    0x2d48
    2b46:       e000            b.n    0x2b4a
    2b48:       0c00            lsrs    r0, r0, #16
    2b4a:       4000            ands    r0, r0
    2b4c:       ed00 e000       nop    
    2b50:       b5f8            push   {r3, r4, r5, r6, r7,lr}
    2b52:       0004            movs    r4, r0
    2b54:       000f            movs    r7, r1
    2b56:       0016            movs    r6, r2
    2b58:       001d            movs    r5, r3
    2b5a:       f7ff ffb1       bl     0x2ac0
    2b5e:       0020            movs    r0, r4
    2b60:       f7ff ff28       bl     0x29b4
    2b64:       211c            movs    r1,#28
    2b66:       00bb            lsls    r3, r7, #2
    2b68:       400b            ands    r3, r1
    2b6a:       0771            lsls    r1, r6, #29
    2b6c:       6822            ldr     r2, [r4, #0]
    2b6e:       0c09            lsrs    r1, r1, #16
    2b70:       430b            orrs    r3, r1
    2b72:       6013            str     r3, [r2, #0]
    2b74:       2384            movs    r3,#132    ; 0x84
    2b76:       6822            ldr     r2, [r4, #0]
    2b78:       7593            strb    r3, [r2, #22]
    2b7a:       2f01            cmp     r7,#1
    2b7c:       d11a            bne.n  0x2bb4
    2b7e:       2110            movs    r1,#16
    2b80:       2e01            cmp     r6,#1
    2b82:       d000            beq.n  0x2b86
    2b84:       3908            subs    r1, #8
    2b86:       4b0c            ldr     r3, [pc, #48]    ; (0x2bb8)
    2b88:       4369            muls    r1, r5
    2b8a:       6818            ldr     r0, [r3, #0]
    2b8c:       00c0            lsls    r0, r0, #3
    2b8e:       f001 fcc7       bl     0x4520
    2b92:       2207            movs    r2,#7
    2b94:       6821            ldr     r1, [r4, #0]
    2b96:       4002            ands    r2, r0
    2b98:       898b            ldrh    r3, [r1, #12]
    2b9a:       0352            lsls    r2, r2, #13
    2b9c:       04db            lsls    r3, r3, #19
    2b9e:       0cdb            lsrs    r3, r3, #19
    2ba0:       4313            orrs    r3, r2
    2ba2:       818b            strh    r3, [r1, #12]
    2ba4:       6822            ldr     r2, [r4, #0]
    2ba6:       0403            lsls    r3, r0, #16
    2ba8:       8990            ldrh    r0, [r2, #12]
    2baa:       0cdb            lsrs    r3, r3, #19
    2bac:       0b40            lsrs    r0, r0, #13
    2bae:       0340            lsls    r0, r0, #13
    2bb0:       4318            orrs    r0, r3
    2bb2:       8190            strh    r0, [r2, #12]
    2bb4:       bdf8            pop    {r3, r4, r5, r6, r7, pc}
    2bb6:       46c0            nop               ; (mov r8, r8)
    2bb8:       0000            movs    r0, r0
    2bba:       2000            movs    r0,#0
    2bbc:       203f            movs    r0,#63    ; 0x3f
    2bbe:       4770            bx      lr
    2bc0:       b513            push   {r0, r1, r4,lr}
    2bc2:       466b            mov     r3, sp
    2bc4:       6802            ldr     r2, [r0, #0]
    2bc6:       71d9            strb    r1, [r3, #7]
    2bc8:       3307            adds    r3, #7
    2bca:       6854            ldr     r4, [r2, #4]
    2bcc:       0019            movs    r1, r3
    2bce:       2201            movs    r2,#1
    2bd0:       47a0            blx     r4
    2bd2:       bd16            pop    {r1, r2, r4, pc}
    2bd4:       b510            push   {r4,lr}
    2bd6:       2102            movs    r1,#2
    2bd8:       6900            ldr     r0, [r0, #16]
    2bda:       f000 fc3d       bl     0x3458
    2bde:       bd10            pop    {r4, pc}
    2be0:       b510            push   {r4,lr}
    2be2:       2103            movs    r1,#3
    2be4:       6900            ldr     r0, [r0, #16]
    2be6:       f000 fc4d       bl     0x3484
    2bea:       bd10            pop    {r4, pc}
    2bec:       b510            push   {r4,lr}
    2bee:       0013            movs    r3, r2
    2bf0:       4a08            ldr     r2, [pc, #32]    ; (0x2c14)
    2bf2:       0004            movs    r4, r0
    2bf4:       79d2            ldrb    r2, [r2, #7]
    2bf6:       2a00            cmp     r2,#0
    2bf8:       d103            bne.n  0x2c02
    2bfa:       2301            movs    r3,#1
    2bfc:       2000            movs    r0,#0
    2bfe:       6063            str     r3, [r4, #4]
    2c00:       bd10            pop    {r4, pc}
    2c02:       000a            movs    r2, r1
    2c04:       6900            ldr     r0, [r0, #16]
    2c06:       2103            movs    r1,#3
    2c08:       f000 fd34       bl     0x3674
    2c0c:       2800            cmp     r0,#0
    2c0e:       d0f4            beq.n  0x2bfa
    2c10:       e7f6            b.n    0x2c00
    2c12:       46c0            nop               ; (mov r8, r8)
    2c14:       000c            movs    r4, r1
    2c16:       2000            movs    r0,#0
    2c18:       b510            push   {r4,lr}
    2c1a:       4c05            ldr     r4, [pc, #20]    ; (0x2c30)
    2c1c:       0003            movs    r3, r0
    2c1e:       6820            ldr     r0, [r4, #0]
    2c20:       1c42            adds    r2, r0, #1
    2c22:       d104            bne.n  0x2c2e
    2c24:       681a            ldr     r2, [r3, #0]
    2c26:       0018            movs    r0, r3
    2c28:       6952            ldr     r2, [r2, #20]
    2c2a:       4790            blx     r2
    2c2c:       6020            str     r0, [r4, #0]
    2c2e:       bd10            pop    {r4, pc}
    2c30:       0058            lsls    r0, r3, #1
    2c32:       2000            movs    r0,#0
    2c34:       4a07            ldr     r2, [pc, #28]    ; (0x2c54)
    2c36:       0003            movs    r3, r0
    2c38:       6810            ldr     r0, [r2, #0]
    2c3a:       b510            push   {r4,lr}
    2c3c:       1c41            adds    r1, r0, #1
    2c3e:       d003            beq.n  0x2c48
    2c40:       2301            movs    r3,#1
    2c42:       425b            negs    r3, r3
    2c44:       6013            str     r3, [r2, #0]
    2c46:       bd10            pop    {r4, pc}
    2c48:       2102            movs    r1,#2
    2c4a:       6918            ldr     r0, [r3, #16]
    2c4c:       f000 fd04       bl     0x3658
    2c50:       e7f9            b.n    0x2c46
    2c52:       46c0            nop               ; (mov r8, r8)
    2c54:       0058            lsls    r0, r3, #1
    2c56:       2000            movs    r0,#0
    2c58:       b510            push   {r4,lr}
    2c5a:       7803            ldrb    r3, [r0, #0]
    2c5c:       2242            movs    r2,#66    ; 0x42
    2c5e:       3302            adds    r3, #2
    2c60:       7003            strb    r3, [r0, #0]
    2c62:       4902            ldr     r1, [pc, #8]    ; (0x2c6c)
    2c64:       4802            ldr     r0, [pc, #8]    ; (0x2c70)
    2c66:       f000 fdb1       bl     0x37cc
    2c6a:       bd10            pop    {r4, pc}
    2c6c:       0014            movs    r4, r2
    2c6e:       2000            movs    r0,#0
    2c70:       0454            lsls    r4, r2, #17
    2c72:       2000            movs    r0,#0
    2c74:       b510            push   {r4,lr}
    2c76:       7801            ldrb    r1, [r0, #0]
    2c78:       0003            movs    r3, r0
    2c7a:       7842            ldrb    r2, [r0, #1]
    2c7c:       2000            movs    r0,#0
    2c7e:       29a1            cmp     r1,#161     ; 0xa1
    2c80:       d108            bne.n  0x2c94
    2c82:       2a21            cmp     r2,#33     ; 0x21
    2c84:       d105            bne.n  0x2c92
    2c86:       4917            ldr     r1, [pc, #92]    ; (0x2ce4)
    2c88:       4817            ldr     r0, [pc, #92]    ; (0x2ce8)
    2c8a:       3a1a            subs    r2, #26
    2c8c:       f000 fd9e       bl     0x37cc
    2c90:       2001            movs    r0,#1
    2c92:       bd10            pop    {r4, pc}
    2c94:       2921            cmp     r1,#33     ; 0x21
    2c96:       d1fc            bne.n  0x2c92
    2c98:       2a20            cmp     r2,#32
    2c9a:       d113            bne.n  0x2cc4
    2c9c:       4911            ldr     r1, [pc, #68]    ; (0x2ce4)
    2c9e:       4812            ldr     r0, [pc, #72]    ; (0x2ce8)
    2ca0:       3a19            subs    r2, #25
    2ca2:       f000 fc33       bl     0x350c
    2ca6:       2296            movs    r2,#150    ; 0x96
    2ca8:       4b0e            ldr     r3, [pc, #56]    ; (0x2ce4)
    2caa:       00d2            lsls    r2, r2, #3
    2cac:       6819            ldr     r1, [r3, #0]
    2cae:       4291            cmp     r1, r2
    2cb0:       d10e            bne.n  0x2cd0
    2cb2:       79da            ldrb    r2, [r3, #7]
    2cb4:       2301            movs    r3,#1
    2cb6:       421a            tst     r2, r3
    2cb8:       d10a            bne.n  0x2cd0
    2cba:       20fa            movs    r0,#250    ; 0xfa
    2cbc:       f7ff fe00       bl     0x28c0
    2cc0:       2000            movs    r0,#0
    2cc2:       e7e6            b.n    0x2c92
    2cc4:       2a22            cmp     r2,#34     ; 0x22
    2cc6:       d106            bne.n  0x2cd6
    2cc8:       789a            ldrb    r2, [r3, #2]
    2cca:       4b06            ldr     r3, [pc, #24]    ; (0x2ce4)
    2ccc:       71da            strb    r2, [r3, #7]
    2cce:       e7ea            b.n    0x2ca6
    2cd0:       f7ff fdfc       bl     0x28cc
    2cd4:       e7f4            b.n    0x2cc0
    2cd6:       2a23            cmp     r2,#35     ; 0x23
    2cd8:       d1db            bne.n  0x2c92
    2cda:       885a            ldrh    r2, [r3, #2]
    2cdc:       4b03            ldr     r3, [pc, #12]    ; (0x2cec)
    2cde:       601a            str     r2, [r3, #0]
    2ce0:       e7d7            b.n    0x2c92
    2ce2:       46c0            nop               ; (mov r8, r8)
    2ce4:       000c            movs    r4, r1
    2ce6:       2000            movs    r0,#0
    2ce8:       0454            lsls    r4, r2, #17
    2cea:       2000            movs    r0,#0
    2cec:       0008            movs    r0, r1
    2cee:       2000            movs    r0,#0
    2cf0:       4770            bx      lr
    2cf2:       0000            movs    r0, r0
    2cf4:       b510            push   {r4,lr}
    2cf6:       f7ff fb27       bl     0x2348
    2cfa:       23fa            movs    r3,#250    ; 0xfa
    2cfc:       2400            movs    r4,#0
    2cfe:       005b            lsls    r3, r3, #1
    2d00:       4298            cmp     r0, r3
    2d02:       d307            bcc.n  0x2d14
    2d04:       4b04            ldr     r3, [pc, #16]    ; (0x2d18)
    2d06:       200a            movs    r0,#10
    2d08:       79dc            ldrb    r4, [r3, #7]
    2d0a:       1e63            subs    r3, r4, #1
    2d0c:       419c            sbcs    r4, r3
    2d0e:       b2e4            uxtb    r4, r4
    2d10:       f7ff fb50       bl     0x23b4
    2d14:       0020            movs    r0, r4
    2d16:       bd10            pop    {r4, pc}
    2d18:       000c            movs    r4, r1
    2d1a:       2000            movs    r0,#0
    2d1c:       22fa            movs    r2,#250    ; 0xfa
    2d1e:       2100            movs    r1,#0
    2d20:       4b05            ldr     r3, [pc, #20]    ; (0x2d38)
    2d22:       0092            lsls    r2, r2, #2
    2d24:       609a            str     r2, [r3, #8]
    2d26:       4a05            ldr     r2, [pc, #20]    ; (0x2d3c)
    2d28:       3208            adds    r2, #8
    2d2a:       601a            str     r2, [r3, #0]
    2d2c:       4a04            ldr     r2, [pc, #16]    ; (0x2d40)
    2d2e:       6059            str     r1, [r3, #4]
    2d30:       611a            str     r2, [r3, #16]
    2d32:       7619            strb    r1, [r3, #24]
    2d34:       4770            bx      lr
    2d36:       46c0            nop               ; (mov r8, r8)
    2d38:       0438            lsls    r0, r7, #16
    2d3a:       2000            movs    r0,#0
    2d3c:       4e24            ldr     r6, [pc, #144]    ; (0x2dd0)
    2d3e:       0000            movs    r0, r0
    2d40:       0454            lsls    r4, r2, #17
    2d42:       2000            movs    r0,#0
    2d44:       4770            bx      lr
    2d46:       b570            push   {r4, r5, r6,lr}
    2d48:       260f            movs    r6,#15
    2d4a:       1dcb            adds    r3, r1, #7
    2d4c:       0002            movs    r2, r0
    2d4e:       4032            ands    r2, r6
    2d50:       b2d5            uxtb    r5, r2
    2d52:       002c            movs    r4, r5
    2d54:       0900            lsrs    r0, r0, #4
    2d56:       3430            adds    r4, #48     ; 0x30
    2d58:       2a09            cmp     r2,#9
    2d5a:       dd00            ble.n  0x2d5e
    2d5c:       3407            adds    r4, #7
    2d5e:       701c            strb    r4, [r3, #0]
    2d60:       1e5a            subs    r2, r3, #1
    2d62:       4299            cmp     r1, r3
    2d64:       d100            bne.n  0x2d68
    2d66:       bd70            pop    {r4, r5, r6, pc}
    2d68:       0013            movs    r3, r2
    2d6a:       e7ef            b.n    0x2d4c
    2d6c:       b510            push   {r4,lr}
    2d6e:       0004            movs    r4, r0
    2d70:       6980            ldr     r0, [r0, #24]
    2d72:       f001 fc8f       bl     0x4694
    2d76:       6aa0            ldr     r0, [r4, #40]    ; 0x28
    2d78:       f001 fc8c       bl     0x4694
    2d7c:       0020            movs    r0, r4
    2d7e:       bd10            pop    {r4, pc}
    2d80:       b510            push   {r4,lr}
    2d82:       0004            movs    r4, r0
    2d84:       f7ff fff2       bl     0x2d6c
    2d88:       0020            movs    r0, r4
    2d8a:       f001 fb2d       bl     0x43e8
    2d8e:       0020            movs    r0, r4
    2d90:       bd10            pop    {r4, pc}
    2d92:       0000            movs    r0, r0
    2d94:       b570            push   {r4, r5, r6,lr}
    2d96:       2903            cmp     r1,#3
    2d98:       d108            bne.n  0x2dac
    2d9a:       4b32            ldr     r3, [pc, #200]    ; (0x2e64)
    2d9c:       0080            lsls    r0, r0, #2
    2d9e:       58c0            ldr     r0, [r0, r3]
    2da0:       2800            cmp     r0,#0
    2da2:       d002            beq.n  0x2daa
    2da4:       6803            ldr     r3, [r0, #0]
    2da6:       68db            ldr     r3, [r3, #12]
    2da8:       4798            blx     r3
    2daa:       bd70            pop    {r4, r5, r6, pc}
    2dac:       2982            cmp     r1,#130     ; 0x82
    2dae:       d11f            bne.n  0x2df0
    2db0:       b2c3            uxtb    r3, r0
    2db2:       4d2d            ldr     r5, [pc, #180]    ; (0x2e68)
    2db4:       015a            lsls    r2, r3, #5
    2db6:       18aa            adds    r2, r5, r2
    2db8:       6991            ldr     r1, [r2, #24]
    2dba:       4c2c            ldr     r4, [pc, #176]    ; (0x2e6c)
    2dbc:       0180            lsls    r0, r0, #6
    2dbe:       400c            ands    r4, r1
    2dc0:       21c0            movs    r1,#192    ; 0xc0
    2dc2:       0589            lsls    r1, r1, #22
    2dc4:       4321            orrs    r1, r4
    2dc6:       6191            str     r1, [r2, #24]
    2dc8:       4929            ldr     r1, [pc, #164]    ; (0x2e70)
    2dca:       3308            adds    r3, #8
    2dcc:       1840            adds    r0, r0, r1
    2dce:       2180            movs    r1,#128    ; 0x80
    2dd0:       6150            str     r0, [r2, #20]
    2dd2:       682a            ldr     r2, [r5, #0]
    2dd4:       015b            lsls    r3, r3, #5
    2dd6:       18d0            adds    r0, r2, r3
    2dd8:       7904            ldrb    r4, [r0, #4]
    2dda:       4249            negs    r1, r1
    2ddc:       4321            orrs    r1, r4
    2dde:       7101            strb    r1, [r0, #4]
    2de0:       2070            movs    r0,#112    ; 0x70
    2de2:       5c99            ldrb    r1, [r3, r2]
    2de4:       4381            bics    r1, r0
    2de6:       0008            movs    r0, r1
    2de8:       2130            movs    r1,#48    ; 0x30
    2dea:       4301            orrs    r1, r0
    2dec:       5499            strb    r1, [r3, r2]
    2dee:       e7dc            b.n    0x2daa
    2df0:       2900            cmp     r1,#0
    2df2:       d1da            bne.n  0x2daa
    2df4:       24c0            movs    r4,#192    ; 0xc0
    2df6:       b2c1            uxtb    r1, r0
    2df8:       4e1b            ldr     r6, [pc, #108]    ; (0x2e68)
    2dfa:       014a            lsls    r2, r1, #5
    2dfc:       18b2            adds    r2, r6, r2
    2dfe:       6893            ldr     r3, [r2, #8]
    2e00:       4d1a            ldr     r5, [pc, #104]    ; (0x2e6c)
    2e02:       05a4            lsls    r4, r4, #22
    2e04:       402b            ands    r3, r5
    2e06:       4323            orrs    r3, r4
    2e08:       6093            str     r3, [r2, #8]
    2e0a:       4b1a            ldr     r3, [pc, #104]    ; (0x2e74)
    2e0c:       0180            lsls    r0, r0, #6
    2e0e:       18c0            adds    r0, r0, r3
    2e10:       000b            movs    r3, r1
    2e12:       6050            str     r0, [r2, #4]
    2e14:       6830            ldr     r0, [r6, #0]
    2e16:       2607            movs    r6,#7
    2e18:       3308            adds    r3, #8
    2e1a:       015b            lsls    r3, r3, #5
    2e1c:       5c19            ldrb    r1, [r3, r0]
    2e1e:       43b1            bics    r1, r6
    2e20:       000e            movs    r6, r1
    2e22:       2101            movs    r1,#1
    2e24:       4331            orrs    r1, r6
    2e26:       5419            strb    r1, [r3, r0]
    2e28:       6991            ldr     r1, [r2, #24]
    2e2a:       400d            ands    r5, r1
    2e2c:       432c            orrs    r4, r5
    2e2e:       6194            str     r4, [r2, #24]
    2e30:       2470            movs    r4,#112    ; 0x70
    2e32:       490f            ldr     r1, [pc, #60]    ; (0x2e70)
    2e34:       6151            str     r1, [r2, #20]
    2e36:       5c19            ldrb    r1, [r3, r0]
    2e38:       43a1            bics    r1, r4
    2e3a:       000c            movs    r4, r1
    2e3c:       2110            movs    r1,#16
    2e3e:       4321            orrs    r1, r4
    2e40:       5419            strb    r1, [r3, r0]
    2e42:       6891            ldr     r1, [r2, #8]
    2e44:       4c0c            ldr     r4, [pc, #48]    ; (0x2e78)
    2e46:       18c3            adds    r3, r0, r3
    2e48:       400c            ands    r4, r1
    2e4a:       2180            movs    r1,#128    ; 0x80
    2e4c:       0349            lsls    r1, r1, #13
    2e4e:       4321            orrs    r1, r4
    2e50:       6091            str     r1, [r2, #8]
    2e52:       6891            ldr     r1, [r2, #8]
    2e54:       0b89            lsrs    r1, r1, #14
    2e56:       0389            lsls    r1, r1, #14
    2e58:       6091            str     r1, [r2, #8]
    2e5a:       2240            movs    r2,#64    ; 0x40
    2e5c:       7959            ldrb    r1, [r3, #5]
    2e5e:       430a            orrs    r2, r1
    2e60:       715a            strb    r2, [r3, #5]
    2e62:       e7a2            b.n    0x2daa
    2e64:       0458            lsls    r0, r3, #17
    2e66:       2000            movs    r0,#0
    2e68:       090c            lsrs    r4, r1, #4
    2e6a:       2000            movs    r0,#0
    2e6c:       ffff 8fff       nop    
    2e70:       0480            lsls    r0, r0, #18
    2e72:       2000            movs    r0,#0
    2e74:       0640            lsls    r0, r0, #25
    2e76:       2000            movs    r0,#0
    2e78:       3fff            subs    r7, #255     ; 0xff
    2e7a:       f000 f3ef       bl     0x40365c
    2e7e:       8310            strh    r0, [r2, #24]
    2e80:       6003            str     r3, [r0, #0]
    2e82:       2301            movs    r3,#1
    2e84:       6043            str     r3, [r0, #4]
    2e86:       b672            cpsid   i 
    2e88:       4770            bx      lr
    2e8a:       6803            ldr     r3, [r0, #0]
    2e8c:       2b00            cmp     r3,#0
    2e8e:       d102            bne.n  0x2e96
    2e90:       b662            cpsie   i 
    2e92:       f3bf 8f6f       isb    sy
    2e96:       4770            bx      lr
    2e98:       b537            push   {r0, r1, r2, r4, r5,lr}
    2e9a:       6905            ldr     r5, [r0, #16]
    2e9c:       0004            movs    r4, r0
    2e9e:       4668            mov     r0, sp
    2ea0:       2d00            cmp     r5,#0
    2ea2:       d114            bne.n  0x2ece
    2ea4:       f7ff ffea       bl     0x2e7c
    2ea8:       9b01            ldr     r3, [sp, #4]
    2eaa:       1d62            adds    r2, r4, #5
    2eac:       3b01            subs    r3, #1
    2eae:       d302            bcc.n  0x2eb6
    2eb0:       7fd5            ldrb    r5, [r2, #31]
    2eb2:       b2ed            uxtb    r5, r5
    2eb4:       e7fa            b.n    0x2eac
    2eb6:       4668            mov     r0, sp
    2eb8:       9301            str     r3, [sp, #4]
    2eba:       f7ff ffe6       bl     0x2e8a
    2ebe:       2d00            cmp     r5,#0
    2ec0:       d101            bne.n  0x2ec6
    2ec2:       2000            movs    r0,#0
    2ec4:       bd3e            pop    {r1, r2, r3, r4, r5, pc}
    2ec6:       6a20            ldr     r0, [r4, #32]
    2ec8:       69e3            ldr     r3, [r4, #28]
    2eca:       1ac0            subs    r0, r0, r3
    2ecc:       e7fa            b.n    0x2ec4
    2ece:       f7ff ffd5       bl     0x2e7c
    2ed2:       0022            movs    r2, r4
    2ed4:       2500            movs    r5,#0
    2ed6:       9b01            ldr     r3, [sp, #4]
    2ed8:       3234            adds    r2, #52     ; 0x34
    2eda:       3b01            subs    r3, #1
    2edc:       d302            bcc.n  0x2ee4
    2ede:       7815            ldrb    r5, [r2, #0]
    2ee0:       b2ed            uxtb    r5, r5
    2ee2:       e7fa            b.n    0x2eda
    2ee4:       4668            mov     r0, sp
    2ee6:       9301            str     r3, [sp, #4]
    2ee8:       f7ff ffcf       bl     0x2e8a
    2eec:       2d00            cmp     r5,#0
    2eee:       d0e8            beq.n  0x2ec2
    2ef0:       6b20            ldr     r0, [r4, #48]    ; 0x30
    2ef2:       6ae3            ldr     r3, [r4, #44]    ; 0x2c
    2ef4:       e7e9            b.n    0x2eca
    2ef6:       0000            movs    r0, r0
    2ef8:       b5f0            push   {r4, r5, r6, r7,lr}
    2efa:       25ff            movs    r5,#255    ; 0xff
    2efc:       2601            movs    r6,#1
    2efe:       6842            ldr     r2, [r0, #4]
    2f00:       6883            ldr     r3, [r0, #8]
    2f02:       6811            ldr     r1, [r2, #0]
    2f04:       402b            ands    r3, r5
    2f06:       015b            lsls    r3, r3, #5
    2f08:       18cc            adds    r4, r1, r3
    2f0a:       1964            adds    r4, r4, r5
    2f0c:       7aa7            ldrb    r7, [r4, #10]
    2f0e:       18d3            adds    r3, r2, r3
    2f10:       433e            orrs    r6, r7
    2f12:       72a6            strb    r6, [r4, #10]
    2f14:       68c6            ldr     r6, [r0, #12]
    2f16:       689c            ldr     r4, [r3, #8]
    2f18:       4f0b            ldr     r7, [pc, #44]    ; (0x2f48)
    2f1a:       04b6            lsls    r6, r6, #18
    2f1c:       0936            lsrs    r6, r6, #4
    2f1e:       403c            ands    r4, r7
    2f20:       4334            orrs    r4, r6
    2f22:       609c            str     r4, [r3, #8]
    2f24:       6883            ldr     r3, [r0, #8]
    2f26:       402b            ands    r3, r5
    2f28:       015b            lsls    r3, r3, #5
    2f2a:       18d2            adds    r2, r2, r3
    2f2c:       6894            ldr     r4, [r2, #8]
    2f2e:       0ba4            lsrs    r4, r4, #14
    2f30:       03a4            lsls    r4, r4, #14
    2f32:       6094            str     r4, [r2, #8]
    2f34:       2240            movs    r2,#64    ; 0x40
    2f36:       6883            ldr     r3, [r0, #8]
    2f38:       402b            ands    r3, r5
    2f3a:       3308            adds    r3, #8
    2f3c:       015b            lsls    r3, r3, #5
    2f3e:       18cb            adds    r3, r1, r3
    2f40:       7919            ldrb    r1, [r3, #4]
    2f42:       430a            orrs    r2, r1
    2f44:       711a            strb    r2, [r3, #4]
    2f46:       bdf0            pop    {r4, r5, r6, r7, pc}
    2f48:       3fff            subs    r7, #255     ; 0xff
    2f4a:       f000 b5f7       b.w    0x403b3c
    2f4e:       6905            ldr     r5, [r0, #16]
    2f50:       0004            movs    r4, r0
    2f52:       000e            movs    r6, r1
    2f54:       0017            movs    r7, r2
    2f56:       4668            mov     r0, sp
    2f58:       2d00            cmp     r5,#0
    2f5a:       d143            bne.n  0x2fe4
    2f5c:       f7ff ff8e       bl     0x2e7c
    2f60:       9b01            ldr     r3, [sp, #4]
    2f62:       1d60            adds    r0, r4, #5
    2f64:       3b01            subs    r3, #1
    2f66:       1c5a            adds    r2, r3, #1
    2f68:       d00b            beq.n  0x2f82
    2f6a:       7fc2            ldrb    r2, [r0, #31]
    2f6c:       1e59            subs    r1, r3, #1
    2f6e:       2a00            cmp     r2,#0
    2f70:       d105            bne.n  0x2f7e
    2f72:       4668            mov     r0, sp
    2f74:       9301            str     r3, [sp, #4]
    2f76:       f7ff ff88       bl     0x2e8a
    2f7a:       0028            movs    r0, r5
    2f7c:       bdfe            pop    {r1, r2, r3, r4, r5, r6, r7, pc}
    2f7e:       000b            movs    r3, r1
    2f80:       e7f1            b.n    0x2f66
    2f82:       4668            mov     r0, sp
    2f84:       9301            str     r3, [sp, #4]
    2f86:       f7ff ff80       bl     0x2e8a
    2f8a:       69e3            ldr     r3, [r4, #28]
    2f8c:       42af            cmp     r7, r5
    2f8e:       d00a            beq.n  0x2fa6
    2f90:       6a22            ldr     r2, [r4, #32]
    2f92:       429a            cmp     r2, r3
    2f94:       d907            bls.n  0x2fa6
    2f96:       1c5a            adds    r2, r3, #1
    2f98:       61e2            str     r2, [r4, #28]
    2f9a:       69a2            ldr     r2, [r4, #24]
    2f9c:       18d3            adds    r3, r2, r3
    2f9e:       781b            ldrb    r3, [r3, #0]
    2fa0:       5573            strb    r3, [r6, r5]
    2fa2:       3501            adds    r5, #1
    2fa4:       e7f1            b.n    0x2f8a
    2fa6:       6a22            ldr     r2, [r4, #32]
    2fa8:       429a            cmp     r2, r3
    2faa:       d1e6            bne.n  0x2f7a
    2fac:       2300            movs    r3,#0
    2fae:       61e3            str     r3, [r4, #28]
    2fb0:       3301            adds    r3, #1
    2fb2:       4668            mov     r0, sp
    2fb4:       6123            str     r3, [r4, #16]
    2fb6:       f7ff ff61       bl     0x2e7c
    2fba:       0022            movs    r2, r4
    2fbc:       2100            movs    r1,#0
    2fbe:       9b01            ldr     r3, [sp, #4]
    2fc0:       1d67            adds    r7, r4, #5
    2fc2:       3b01            subs    r3, #1
    2fc4:       3235            adds    r2, #53     ; 0x35
    2fc6:       1c58            adds    r0, r3, #1
    2fc8:       d0d3            beq.n  0x2f72
    2fca:       77f9            strb    r1, [r7, #31]
    2fcc:       7810            ldrb    r0, [r2, #0]
    2fce:       1e5e            subs    r6, r3, #1
    2fd0:       2800            cmp     r0,#0
    2fd2:       d005            beq.n  0x2fe0
    2fd4:       0020            movs    r0, r4
    2fd6:       7011            strb    r1, [r2, #0]
    2fd8:       9301            str     r3, [sp, #4]
    2fda:       f7ff ff8d       bl     0x2ef8
    2fde:       e7ec            b.n    0x2fba
    2fe0:       0033            movs    r3, r6
    2fe2:       e7f0            b.n    0x2fc6
    2fe4:       f7ff ff4a       bl     0x2e7c
    2fe8:       0020            movs    r0, r4
    2fea:       9b01            ldr     r3, [sp, #4]
    2fec:       3034            adds    r0, #52     ; 0x34
    2fee:       3b01            subs    r3, #1
    2ff0:       1c5a            adds    r2, r3, #1
    2ff2:       d006            beq.n  0x3002
    2ff4:       7802            ldrb    r2, [r0, #0]
    2ff6:       1e59            subs    r1, r3, #1
    2ff8:       b2d5            uxtb    r5, r2
    2ffa:       2a00            cmp     r2,#0
    2ffc:       d0b9            beq.n  0x2f72
    2ffe:       000b            movs    r3, r1
    3000:       e7f6            b.n    0x2ff0
    3002:       4668            mov     r0, sp
    3004:       9301            str     r3, [sp, #4]
    3006:       2500            movs    r5,#0
    3008:       f7ff ff3f       bl     0x2e8a
    300c:       6ae3            ldr     r3, [r4, #44]    ; 0x2c
    300e:       42bd            cmp     r5, r7
    3010:       d002            beq.n  0x3018
    3012:       6b22            ldr     r2, [r4, #48]    ; 0x30
    3014:       429a            cmp     r2, r3
    3016:       d81c            bhi.n  0x3052
    3018:       6b22            ldr     r2, [r4, #48]    ; 0x30
    301a:       429a            cmp     r2, r3
    301c:       d1ad            bne.n  0x2f7a
    301e:       2300            movs    r3,#0
    3020:       4668            mov     r0, sp
    3022:       62e3            str     r3, [r4, #44]    ; 0x2c
    3024:       6123            str     r3, [r4, #16]
    3026:       f7ff ff29       bl     0x2e7c
    302a:       0027            movs    r7, r4
    302c:       0022            movs    r2, r4
    302e:       2100            movs    r1,#0
    3030:       9b01            ldr     r3, [sp, #4]
    3032:       3734            adds    r7, #52     ; 0x34
    3034:       3b01            subs    r3, #1
    3036:       3235            adds    r2, #53     ; 0x35
    3038:       1c58            adds    r0, r3, #1
    303a:       d09a            beq.n  0x2f72
    303c:       7039            strb    r1, [r7, #0]
    303e:       7810            ldrb    r0, [r2, #0]
    3040:       1e5e            subs    r6, r3, #1
    3042:       2800            cmp     r0,#0
    3044:       d00d            beq.n  0x3062
    3046:       0020            movs    r0, r4
    3048:       7011            strb    r1, [r2, #0]
    304a:       9301            str     r3, [sp, #4]
    304c:       f7ff ff54       bl     0x2ef8
    3050:       e7eb            b.n    0x302a
    3052:       1c5a            adds    r2, r3, #1
    3054:       62e2            str     r2, [r4, #44]    ; 0x2c
    3056:       6aa2            ldr     r2, [r4, #40]    ; 0x28
    3058:       18d3            adds    r3, r2, r3
    305a:       781b            ldrb    r3, [r3, #0]
    305c:       5573            strb    r3, [r6, r5]
    305e:       3501            adds    r5, #1
    3060:       e7d4            b.n    0x300c
    3062:       0033            movs    r3, r6
    3064:       e7e8            b.n    0x3038
    3066:       b5f7            push   {r0, r1, r2, r4, r5, r6, r7,lr}
    3068:       6882            ldr     r2, [r0, #8]
    306a:       6843            ldr     r3, [r0, #4]
    306c:       b2d2            uxtb    r2, r2
    306e:       0011            movs    r1, r2
    3070:       0004            movs    r4, r0
    3072:       3108            adds    r1, #8
    3074:       6818            ldr     r0, [r3, #0]
    3076:       0149            lsls    r1, r1, #5
    3078:       1841            adds    r1, r0, r1
    307a:       79c8            ldrb    r0, [r1, #7]
    307c:       07c0            lsls    r0, r0, #31
    307e:       d529            bpl.n  0x30d4
    3080:       2501            movs    r5,#1
    3082:       0152            lsls    r2, r2, #5
    3084:       71cd            strb    r5, [r1, #7]
    3086:       189b            adds    r3, r3, r2
    3088:       689a            ldr     r2, [r3, #8]
    308a:       6961            ldr     r1, [r4, #20]
    308c:       0492            lsls    r2, r2, #18
    308e:       0c92            lsrs    r2, r2, #18
    3090:       2900            cmp     r1,#0
    3092:       d123            bne.n  0x30dc
    3094:       6222            str     r2, [r4, #32]
    3096:       6a22            ldr     r2, [r4, #32]
    3098:       2a00            cmp     r2,#0
    309a:       d041            beq.n  0x3120
    309c:       6aa2            ldr     r2, [r4, #40]    ; 0x28
    309e:       6165            str     r5, [r4, #20]
    30a0:       4668            mov     r0, sp
    30a2:       605a            str     r2, [r3, #4]
    30a4:       f7ff feea       bl     0x2e7c
    30a8:       2234            movs    r2,#52    ; 0x34
    30aa:       4694            mov     ip, r2
    30ac:       0022            movs    r2, r4
    30ae:       9b01            ldr     r3, [sp, #4]
    30b0:       1d67            adds    r7, r4, #5
    30b2:       3b01            subs    r3, #1
    30b4:       44a4            add     ip, r4
    30b6:       3235            adds    r2, #53     ; 0x35
    30b8:       1c59            adds    r1, r3, #1
    30ba:       d02d            beq.n  0x3118
    30bc:       4661            mov     r1, ip
    30be:       77fd            strb    r5, [r7, #31]
    30c0:       7809            ldrb    r1, [r1, #0]
    30c2:       1e58            subs    r0, r3, #1
    30c4:       b2ce            uxtb    r6, r1
    30c6:       2900            cmp     r1,#0
    30c8:       d005            beq.n  0x30d6
    30ca:       9301            str     r3, [sp, #4]
    30cc:       4668            mov     r0, sp
    30ce:       7015            strb    r5, [r2, #0]
    30d0:       f7ff fedb       bl     0x2e8a
    30d4:       bdf7            pop    {r0, r1, r2, r4, r5, r6, r7, pc}
    30d6:       0003            movs    r3, r0
    30d8:       7016            strb    r6, [r2, #0]
    30da:       e7ed            b.n    0x30b8
    30dc:       6322            str     r2, [r4, #48]    ; 0x30
    30de:       6b22            ldr     r2, [r4, #48]    ; 0x30
    30e0:       2a00            cmp     r2,#0
    30e2:       d01d            beq.n  0x3120
    30e4:       2200            movs    r2,#0
    30e6:       0027            movs    r7, r4
    30e8:       6162            str     r2, [r4, #20]
    30ea:       69a2            ldr     r2, [r4, #24]
    30ec:       4668            mov     r0, sp
    30ee:       605a            str     r2, [r3, #4]
    30f0:       f7ff fec4       bl     0x2e7c
    30f4:       9b01            ldr     r3, [sp, #4]
    30f6:       1d62            adds    r2, r4, #5
    30f8:       4694            mov     ip, r2
    30fa:       3b01            subs    r3, #1
    30fc:       3734            adds    r7, #52     ; 0x34
    30fe:       3230            adds    r2, #48     ; 0x30
    3100:       1c59            adds    r1, r3, #1
    3102:       d009            beq.n  0x3118
    3104:       4661            mov     r1, ip
    3106:       703d            strb    r5, [r7, #0]
    3108:       7fc9            ldrb    r1, [r1, #31]
    310a:       1e58            subs    r0, r3, #1
    310c:       b2ce            uxtb    r6, r1
    310e:       2900            cmp     r1,#0
    3110:       d1db            bne.n  0x30ca
    3112:       0003            movs    r3, r0
    3114:       7016            strb    r6, [r2, #0]
    3116:       e7f3            b.n    0x3100
    3118:       4668            mov     r0, sp
    311a:       9301            str     r3, [sp, #4]
    311c:       f7ff feb5       bl     0x2e8a
    3120:       0020            movs    r0, r4
    3122:       f7ff fee9       bl     0x2ef8
    3126:       e7d5            b.n    0x30d4
    3128:       b513            push   {r0, r1, r4,lr}
    312a:       466a            mov     r2, sp
    312c:       2300            movs    r3,#0
    312e:       000c            movs    r4, r1
    3130:       1dd0            adds    r0, r2, #7
    3132:       71d3            strb    r3, [r2, #7]
    3134:       f7ff fd90       bl     0x2c58
    3138:       6823            ldr     r3, [r4, #0]
    313a:       1818            adds    r0, r3, r0
    313c:       6020            str     r0, [r4, #0]
    313e:       f001 f98b       bl     0x4458
    3142:       466b            mov     r3, sp
    3144:       1dd9            adds    r1, r3, #7
    3146:       f001 f953       bl     0x43f0
    314a:       6823            ldr     r3, [r4, #0]
    314c:       1818            adds    r0, r3, r0
    314e:       466b            mov     r3, sp
    3150:       6020            str     r0, [r4, #0]
    3152:       79d8            ldrb    r0, [r3, #7]
    3154:       bd16            pop    {r1, r2, r4, pc}
    3156:       0000            movs    r0, r0
    3158:       2903            cmp     r1,#3
    315a:       d10e            bne.n  0x317a
    315c:       2280            movs    r2,#128    ; 0x80
    315e:       4b0e            ldr     r3, [pc, #56]    ; (0x3198)
    3160:       3162            adds    r1, #98     ; 0x62
    3162:       681b            ldr     r3, [r3, #0]
    3164:       31ff            adds    r1, #255     ; 0xff
    3166:       5c58            ldrb    r0, [r3, r1]
    3168:       4252            negs    r2, r2
    316a:       4302            orrs    r2, r0
    316c:       545a            strb    r2, [r3, r1]
    316e:       2268            movs    r2,#104    ; 0x68
    3170:       3963            subs    r1, #99     ; 0x63
    3172:       32ff            adds    r2, #255     ; 0xff
    3174:       39ff            subs    r1, #255     ; 0xff
    3176:       5499            strb    r1, [r3, r2]
    3178:       4770            bx      lr
    317a:       2901            cmp     r1,#1
    317c:       d1fc            bne.n  0x3178
    317e:       2280            movs    r2,#128    ; 0x80
    3180:       4b05            ldr     r3, [pc, #20]    ; (0x3198)
    3182:       3124            adds    r1, #36     ; 0x24
    3184:       681b            ldr     r3, [r3, #0]
    3186:       31ff            adds    r1, #255     ; 0xff
    3188:       5c58            ldrb    r0, [r3, r1]
    318a:       4252            negs    r2, r2
    318c:       4302            orrs    r2, r0
    318e:       545a            strb    r2, [r3, r1]
    3190:       2228            movs    r2,#40    ; 0x28
    3192:       3923            subs    r1, #35     ; 0x23
    3194:       32ff            adds    r2, #255     ; 0xff
    3196:       e7ed            b.n    0x3174
    3198:       090c            lsrs    r4, r1, #4
    319a:       2000            movs    r0,#0
    319c:       b570            push   {r4, r5, r6,lr}
    319e:       2500            movs    r5,#0
    31a0:       4b2f            ldr     r3, [pc, #188]    ; (0x3260)
    31a2:       2101            movs    r1,#1
    31a4:       0004            movs    r4, r0
    31a6:       2020            movs    r0,#32
    31a8:       701d            strb    r5, [r3, #0]
    31aa:       f7ff fa8b       bl     0x26c4
    31ae:       2101            movs    r1,#1
    31b0:       2020            movs    r0,#32
    31b2:       f7ff fab7       bl     0x2724
    31b6:       4b2b            ldr     r3, [pc, #172]    ; (0x3264)
    31b8:       2101            movs    r1,#1
    31ba:       201f            movs    r0,#31
    31bc:       701d            strb    r5, [r3, #0]
    31be:       f7ff fa81       bl     0x26c4
    31c2:       2101            movs    r1,#1
    31c4:       201f            movs    r0,#31
    31c6:       f7ff faad       bl     0x2724
    31ca:       2320            movs    r3,#32
    31cc:       4a26            ldr     r2, [pc, #152]    ; (0x3268)
    31ce:       200f            movs    r0,#15
    31d0:       69d1            ldr     r1, [r2, #28]
    31d2:       430b            orrs    r3, r1
    31d4:       61d3            str     r3, [r2, #28]
    31d6:       2201            movs    r2,#1
    31d8:       4924            ldr     r1, [pc, #144]    ; (0x326c)
    31da:       780b            ldrb    r3, [r1, #0]
    31dc:       4313            orrs    r3, r2
    31de:       700b            strb    r3, [r1, #0]
    31e0:       4b23            ldr     r3, [pc, #140]    ; (0x3270)
    31e2:       7819            ldrb    r1, [r3, #0]
    31e4:       4381            bics    r1, r0
    31e6:       7019            strb    r1, [r3, #0]
    31e8:       2106            movs    r1,#6
    31ea:       781d            ldrb    r5, [r3, #0]
    31ec:       4329            orrs    r1, r5
    31ee:       7019            strb    r1, [r3, #0]
    31f0:       4920            ldr     r1, [pc, #128]    ; (0x3274)
    31f2:       780d            ldrb    r5, [r1, #0]
    31f4:       432a            orrs    r2, r5
    31f6:       700a            strb    r2, [r1, #0]
    31f8:       781a            ldrb    r2, [r3, #0]
    31fa:       4002            ands    r2, r0
    31fc:       701a            strb    r2, [r3, #0]
    31fe:       2260            movs    r2,#96    ; 0x60
    3200:       7819            ldrb    r1, [r3, #0]
    3202:       430a            orrs    r2, r1
    3204:       701a            strb    r2, [r3, #0]
    3206:       4b1c            ldr     r3, [pc, #112]    ; (0x3278)
    3208:       4a1c            ldr     r2, [pc, #112]    ; (0x327c)
    320a:       805a            strh    r2, [r3, #2]
    320c:       785a            ldrb    r2, [r3, #1]
    320e:       09d2            lsrs    r2, r2, #7
    3210:       d1fc            bne.n  0x320c
    3212:       481b            ldr     r0, [pc, #108]    ; (0x3280)
    3214:       f7ff f892       bl     0x233c
    3218:       4d1a            ldr     r5, [pc, #104]    ; (0x3284)
    321a:       0028            movs    r0, r5
    321c:       f001 f930       bl     0x4480
    3220:       0028            movs    r0, r5
    3222:       f001 f943       bl     0x44ac
    3226:       217f            movs    r1,#127    ; 0x7f
    3228:       682b            ldr     r3, [r5, #0]
    322a:       20c1            movs    r0,#193    ; 0xc1
    322c:       781a            ldrb    r2, [r3, #0]
    322e:       0080            lsls    r0, r0, #2
    3230:       400a            ands    r2, r1
    3232:       701a            strb    r2, [r3, #0]
    3234:       2204            movs    r2,#4
    3236:       7819            ldrb    r1, [r3, #0]
    3238:       430a            orrs    r2, r1
    323a:       210c            movs    r1,#12
    323c:       701a            strb    r2, [r3, #0]
    323e:       891a            ldrh    r2, [r3, #8]
    3240:       438a            bics    r2, r1
    3242:       4911            ldr     r1, [pc, #68]    ; (0x3288)
    3244:       811a            strh    r2, [r3, #8]
    3246:       580a            ldr     r2, [r1, r0]
    3248:       0212            lsls    r2, r2, #8
    324a:       0a12            lsrs    r2, r2, #8
    324c:       500a            str     r2, [r1, r0]
    324e:       2280            movs    r2,#128    ; 0x80
    3250:       600a            str     r2, [r1, #0]
    3252:       7819            ldrb    r1, [r3, #0]
    3254:       3a7e            subs    r2, #126     ; 0x7e
    3256:       430a            orrs    r2, r1
    3258:       701a            strb    r2, [r3, #0]
    325a:       2301            movs    r3,#1
    325c:       7023            strb    r3, [r4, #0]
    325e:       bd70            pop    {r4, r5, r6, pc}
    3260:       0475            lsls    r5, r6, #17
    3262:       2000            movs    r0,#0
    3264:       0474            lsls    r4, r6, #17
    3266:       2000            movs    r0,#0
    3268:       0400            lsls    r0, r0, #16
    326a:       4000            ands    r0, r0
    326c:       4458            add     r0, fp
    326e:       4100            asrs    r0, r0
    3270:       443c            add     r4, r7
    3272:       4100            asrs    r0, r0
    3274:       4459            add     r1, fp
    3276:       4100            asrs    r0, r0
    3278:       0c00            lsrs    r0, r0, #16
    327a:       4000            ands    r0, r0
    327c:       4006            ands    r6, r0
    327e:       0000            movs    r0, r0
    3280:       3c55            subs    r4, #85     ; 0x55
    3282:       0000            movs    r0, r0
    3284:       090c            lsrs    r4, r1, #4
    3286:       2000            movs    r0,#0
    3288:       e100            b.n    0x348c
    328a:       e000            b.n    0x328e
    328c:       7800            ldrb    r0, [r0, #0]
    328e:       2800            cmp     r0,#0
    3290:       d010            beq.n  0x32b4
    3292:       2101            movs    r1,#1
    3294:       4b08            ldr     r3, [pc, #32]    ; (0x32b8)
    3296:       681b            ldr     r3, [r3, #0]
    3298:       891a            ldrh    r2, [r3, #8]
    329a:       438a            bics    r2, r1
    329c:       811a            strh    r2, [r3, #8]
    329e:       2208            movs    r2,#8
    32a0:       8b19            ldrh    r1, [r3, #24]
    32a2:       430a            orrs    r2, r1
    32a4:       831a            strh    r2, [r3, #24]
    32a6:       2204            movs    r2,#4
    32a8:       8b19            ldrh    r1, [r3, #24]
    32aa:       430a            orrs    r2, r1
    32ac:       831a            strh    r2, [r3, #24]
    32ae:       2200            movs    r2,#0
    32b0:       4b02            ldr     r3, [pc, #8]    ; (0x32bc)
    32b2:       601a            str     r2, [r3, #0]
    32b4:       4770            bx      lr
    32b6:       46c0            nop               ; (mov r8, r8)
    32b8:       090c            lsrs    r4, r1, #4
    32ba:       2000            movs    r0,#0
    32bc:       0904            lsrs    r4, r0, #4
    32be:       2000            movs    r0,#0
    32c0:       000a            movs    r2, r1
    32c2:       490e            ldr     r1, [pc, #56]    ; (0x32fc)
    32c4:       698b            ldr     r3, [r1, #24]
    32c6:       0b9b            lsrs    r3, r3, #14
    32c8:       039b            lsls    r3, r3, #14
    32ca:       618b            str     r3, [r1, #24]
    32cc:       680b            ldr     r3, [r1, #0]
    32ce:       2102            movs    r1,#2
    32d0:       33ff            adds    r3, #255     ; 0xff
    32d2:       7219            strb    r1, [r3, #8]
    32d4:       7998            ldrb    r0, [r3, #6]
    32d6:       3982            subs    r1, #130     ; 0x82
    32d8:       4301            orrs    r1, r0
    32da:       7199            strb    r1, [r3, #6]
    32dc:       7a19            ldrb    r1, [r3, #8]
    32de:       0789            lsls    r1, r1, #30
    32e0:       d5fc            bpl.n  0x32dc
    32e2:       207f            movs    r0,#127    ; 0x7f
    32e4:       4b06            ldr     r3, [pc, #24]    ; (0x3300)
    32e6:       4002            ands    r2, r0
    32e8:       7a99            ldrb    r1, [r3, #10]
    32ea:       4381            bics    r1, r0
    32ec:       4311            orrs    r1, r2
    32ee:       2280            movs    r2,#128    ; 0x80
    32f0:       7299            strb    r1, [r3, #10]
    32f2:       7a99            ldrb    r1, [r3, #10]
    32f4:       4252            negs    r2, r2
    32f6:       430a            orrs    r2, r1
    32f8:       729a            strb    r2, [r3, #10]
    32fa:       4770            bx      lr
    32fc:       090c            lsrs    r4, r1, #4
    32fe:       2000            movs    r0,#0
    3300:       5000            str     r0, [r0, r0]
    3302:       4100            asrs    r0, r0
    3304:       b510            push   {r4,lr}
    3306:       790b            ldrb    r3, [r1, #4]
    3308:       000c            movs    r4, r1
    330a:       2b00            cmp     r3,#0
    330c:       d10c            bne.n  0x3328
    330e:       0008            movs    r0, r1
    3310:       f7ff fcb0       bl     0x2c74
    3314:       2800            cmp     r0,#0
    3316:       d001            beq.n  0x331c
    3318:       2001            movs    r0,#1
    331a:       bd10            pop    {r4, pc}
    331c:       4a09            ldr     r2, [pc, #36]    ; (0x3344)
    331e:       6993            ldr     r3, [r2, #24]
    3320:       0b9b            lsrs    r3, r3, #14
    3322:       039b            lsls    r3, r3, #14
    3324:       6193            str     r3, [r2, #24]
    3326:       e7f7            b.n    0x3318
    3328:       f001 f896       bl     0x4458
    332c:       0021            movs    r1, r4
    332e:       f001 f883       bl     0x4438
    3332:       2800            cmp     r0,#0
    3334:       d1f0            bne.n  0x3318
    3336:       4a03            ldr     r2, [pc, #12]    ; (0x3344)
    3338:       6993            ldr     r3, [r2, #24]
    333a:       0b9b            lsrs    r3, r3, #14
    333c:       039b            lsls    r3, r3, #14
    333e:       6193            str     r3, [r2, #24]
    3340:       e7eb            b.n    0x331a
    3342:       46c0            nop               ; (mov r8, r8)
    3344:       090c            lsrs    r4, r1, #4
    3346:       2000            movs    r0,#0
    3348:       b5f7            push   {r0, r1, r2, r4, r5, r6, r7,lr}
    334a:       000d            movs    r5, r1
    334c:       0011            movs    r1, r2
    334e:       2a83            cmp     r2,#131     ; 0x83
    3350:       d119            bne.n  0x3386
    3352:       b2eb            uxtb    r3, r5
    3354:       4c32            ldr     r4, [pc, #200]    ; (0x3420)
    3356:       015a            lsls    r2, r3, #5
    3358:       18a2            adds    r2, r4, r2
    335a:       6991            ldr     r1, [r2, #24]
    335c:       4831            ldr     r0, [pc, #196]    ; (0x3424)
    335e:       01ad            lsls    r5, r5, #6
    3360:       4008            ands    r0, r1
    3362:       21c0            movs    r1,#192    ; 0xc0
    3364:       0589            lsls    r1, r1, #22
    3366:       4301            orrs    r1, r0
    3368:       6191            str     r1, [r2, #24]
    336a:       492f            ldr     r1, [pc, #188]    ; (0x3428)
    336c:       6820            ldr     r0, [r4, #0]
    336e:       186d            adds    r5, r5, r1
    3370:       2170            movs    r1,#112    ; 0x70
    3372:       3308            adds    r3, #8
    3374:       6155            str     r5, [r2, #20]
    3376:       015b            lsls    r3, r3, #5
    3378:       5c1a            ldrb    r2, [r3, r0]
    337a:       438a            bics    r2, r1
    337c:       0011            movs    r1, r2
    337e:       2240            movs    r2,#64    ; 0x40
    3380:       430a            orrs    r2, r1
    3382:       541a            strb    r2, [r3, r0]
    3384:       bdf7            pop    {r0, r1, r2, r4, r5, r6, r7, pc}
    3386:       2a02            cmp     r2,#2
    3388:       d145            bne.n  0x3416
    338a:       4a28            ldr     r2, [pc, #160]    ; (0x342c)
    338c:       00ab            lsls    r3, r5, #2
    338e:       5898            ldr     r0, [r3, r2]
    3390:       2800            cmp     r0,#0
    3392:       d002            beq.n  0x339a
    3394:       6803            ldr     r3, [r0, #0]
    3396:       695b            ldr     r3, [r3, #20]
    3398:       4798            blx     r3
    339a:       2038            movs    r0,#56    ; 0x38
    339c:       f001 f820       bl     0x43e0
    33a0:       4b23            ldr     r3, [pc, #140]    ; (0x3430)
    33a2:       2780            movs    r7,#128    ; 0x80
    33a4:       6003            str     r3, [r0, #0]
    33a6:       2300            movs    r3,#0
    33a8:       4e1d            ldr     r6, [pc, #116]    ; (0x3420)
    33aa:       007f            lsls    r7, r7, #1
    33ac:       1d42            adds    r2, r0, #5
    33ae:       6203            str     r3, [r0, #32]
    33b0:       6103            str     r3, [r0, #16]
    33b2:       6143            str     r3, [r0, #20]
    33b4:       61c3            str     r3, [r0, #28]
    33b6:       6046            str     r6, [r0, #4]
    33b8:       6085            str     r5, [r0, #8]
    33ba:       60c7            str     r7, [r0, #12]
    33bc:       77d3            strb    r3, [r2, #31]
    33be:       322f            adds    r2, #47     ; 0x2f
    33c0:       62c3            str     r3, [r0, #44]    ; 0x2c
    33c2:       6303            str     r3, [r0, #48]    ; 0x30
    33c4:       0004            movs    r4, r0
    33c6:       7013            strb    r3, [r2, #0]
    33c8:       0038            movs    r0, r7
    33ca:       7053            strb    r3, [r2, #1]
    33cc:       f001 f958       bl     0x4680
    33d0:       9001            str     r0, [sp, #4]
    33d2:       61a0            str     r0, [r4, #24]
    33d4:       0038            movs    r0, r7
    33d6:       f001 f953       bl     0x4680
    33da:       b2eb            uxtb    r3, r5
    33dc:       015a            lsls    r2, r3, #5
    33de:       62a0            str     r0, [r4, #40]    ; 0x28
    33e0:       18b2            adds    r2, r6, r2
    33e2:       6891            ldr     r1, [r2, #8]
    33e4:       480f            ldr     r0, [pc, #60]    ; (0x3424)
    33e6:       3308            adds    r3, #8
    33e8:       4008            ands    r0, r1
    33ea:       21c0            movs    r1,#192    ; 0xc0
    33ec:       0589            lsls    r1, r1, #22
    33ee:       4301            orrs    r1, r0
    33f0:       6091            str     r1, [r2, #8]
    33f2:       6831            ldr     r1, [r6, #0]
    33f4:       2607            movs    r6,#7
    33f6:       015b            lsls    r3, r3, #5
    33f8:       5c58            ldrb    r0, [r3, r1]
    33fa:       00ad            lsls    r5, r5, #2
    33fc:       43b0            bics    r0, r6
    33fe:       0006            movs    r6, r0
    3400:       2003            movs    r0,#3
    3402:       4330            orrs    r0, r6
    3404:       5458            strb    r0, [r3, r1]
    3406:       9b01            ldr     r3, [sp, #4]
    3408:       0020            movs    r0, r4
    340a:       6053            str     r3, [r2, #4]
    340c:       f7ff fd74       bl     0x2ef8
    3410:       4b06            ldr     r3, [pc, #24]    ; (0x342c)
    3412:       515c            str     r4, [r3, r5]
    3414:       e7b6            b.n    0x3384
    3416:       0028            movs    r0, r5
    3418:       f7ff fcbc       bl     0x2d94
    341c:       e7b2            b.n    0x3384
    341e:       46c0            nop               ; (mov r8, r8)
    3420:       090c            lsrs    r4, r1, #4
    3422:       2000            movs    r0,#0
    3424:       ffff 8fff       nop    
    3428:       0480            lsls    r0, r0, #18
    342a:       2000            movs    r0,#0
    342c:       0458            lsls    r0, r3, #17
    342e:       2000            movs    r0,#0
    3430:       4e50            ldr     r6, [pc, #320]    ; (0x3574)
    3432:       0000            movs    r0, r0
    3434:       b570            push   {r4, r5, r6,lr}
    3436:       0005            movs    r5, r0
    3438:       2401            movs    r4,#1
    343a:       4b06            ldr     r3, [pc, #24]    ; (0x3454)
    343c:       00a2            lsls    r2, r4, #2
    343e:       58d2            ldr     r2, [r2, r3]
    3440:       2a00            cmp     r2,#0
    3442:       d005            beq.n  0x3450
    3444:       0021            movs    r1, r4
    3446:       0028            movs    r0, r5
    3448:       f7ff ff7e       bl     0x3348
    344c:       3401            adds    r4, #1
    344e:       e7f4            b.n    0x343a
    3450:       bd70            pop    {r4, r5, r6, pc}
    3452:       46c0            nop               ; (mov r8, r8)
    3454:       005c            lsls    r4, r3, #1
    3456:       2000            movs    r0,#0
    3458:       4b08            ldr     r3, [pc, #32]    ; (0x347c)
    345a:       008a            lsls    r2, r1, #2
    345c:       58d0            ldr     r0, [r2, r3]
    345e:       b510            push   {r4,lr}
    3460:       2800            cmp     r0,#0
    3462:       d003            beq.n  0x346c
    3464:       6803            ldr     r3, [r0, #0]
    3466:       689b            ldr     r3, [r3, #8]
    3468:       4798            blx     r3
    346a:       bd10            pop    {r4, pc}
    346c:       4b04            ldr     r3, [pc, #16]    ; (0x3480)
    346e:       b2c9            uxtb    r1, r1
    3470:       0149            lsls    r1, r1, #5
    3472:       1859            adds    r1, r3, r1
    3474:       6888            ldr     r0, [r1, #8]
    3476:       0480            lsls    r0, r0, #18
    3478:       0c80            lsrs    r0, r0, #18
    347a:       e7f6            b.n    0x346a
    347c:       0458            lsls    r0, r3, #17
    347e:       2000            movs    r0,#0
    3480:       090c            lsrs    r4, r1, #4
    3482:       2000            movs    r0,#0
    3484:       b510            push   {r4,lr}
    3486:       000c            movs    r4, r1
    3488:       f7ff ffe6       bl     0x3458
    348c:       2800            cmp     r0,#0
    348e:       d00c            beq.n  0x34aa
    3490:       4b06            ldr     r3, [pc, #24]    ; (0x34ac)
    3492:       b2e4            uxtb    r4, r4
    3494:       6819            ldr     r1, [r3, #0]
    3496:       2380            movs    r3,#128    ; 0x80
    3498:       3408            adds    r4, #8
    349a:       0164            lsls    r4, r4, #5
    349c:       190c            adds    r4, r1, r4
    349e:       7962            ldrb    r2, [r4, #5]
    34a0:       425b            negs    r3, r3
    34a2:       4313            orrs    r3, r2
    34a4:       7163            strb    r3, [r4, #5]
    34a6:       2302            movs    r3,#2
    34a8:       71e3            strb    r3, [r4, #7]
    34aa:       bd10            pop    {r4, pc}
    34ac:       090c            lsrs    r4, r1, #4
    34ae:       2000            movs    r0,#0
    34b0:       b570            push   {r4, r5, r6,lr}
    34b2:       b2cb            uxtb    r3, r1
    34b4:       4a12            ldr     r2, [pc, #72]    ; (0x3500)
    34b6:       4813            ldr     r0, [pc, #76]    ; (0x3504)
    34b8:       015c            lsls    r4, r3, #5
    34ba:       0189            lsls    r1, r1, #6
    34bc:       1889            adds    r1, r1, r2
    34be:       1902            adds    r2, r0, r4
    34c0:       6051            str     r1, [r2, #4]
    34c2:       6891            ldr     r1, [r2, #8]
    34c4:       4d10            ldr     r5, [pc, #64]    ; (0x3508)
    34c6:       3308            adds    r3, #8
    34c8:       400d            ands    r5, r1
    34ca:       2180            movs    r1,#128    ; 0x80
    34cc:       0289            lsls    r1, r1, #10
    34ce:       4329            orrs    r1, r5
    34d0:       2540            movs    r5,#64    ; 0x40
    34d2:       6091            str     r1, [r2, #8]
    34d4:       6891            ldr     r1, [r2, #8]
    34d6:       0b89            lsrs    r1, r1, #14
    34d8:       0389            lsls    r1, r1, #14
    34da:       6091            str     r1, [r2, #8]
    34dc:       6801            ldr     r1, [r0, #0]
    34de:       015a            lsls    r2, r3, #5
    34e0:       188a            adds    r2, r1, r2
    34e2:       7916            ldrb    r6, [r2, #4]
    34e4:       4335            orrs    r5, r6
    34e6:       7115            strb    r5, [r2, #4]
    34e8:       7995            ldrb    r5, [r2, #6]
    34ea:       066d            lsls    r5, r5, #25
    34ec:       d5fc            bpl.n  0x34e8
    34ee:       015b            lsls    r3, r3, #5
    34f0:       18c9            adds    r1, r1, r3
    34f2:       79cb            ldrb    r3, [r1, #7]
    34f4:       07db            lsls    r3, r3, #31
    34f6:       d5fc            bpl.n  0x34f2
    34f8:       1900            adds    r0, r0, r4
    34fa:       6880            ldr     r0, [r0, #8]
    34fc:       b2c0            uxtb    r0, r0
    34fe:       bd70            pop    {r4, r5, r6, pc}
    3500:       0640            lsls    r0, r0, #25
    3502:       2000            movs    r0,#0
    3504:       090c            lsrs    r4, r1, #4
    3506:       2000            movs    r0,#0
    3508:       3fff            subs    r7, #255     ; 0xff
    350a:       f000 b570       b.w    0x403fee
    350e:       0014            movs    r4, r2
    3510:       2240            movs    r2,#64    ; 0x40
    3512:       4b0b            ldr     r3, [pc, #44]    ; (0x3540)
    3514:       000d            movs    r5, r1
    3516:       681b            ldr     r3, [r3, #0]
    3518:       33ff            adds    r3, #255     ; 0xff
    351a:       7959            ldrb    r1, [r3, #5]
    351c:       430a            orrs    r2, r1
    351e:       715a            strb    r2, [r3, #5]
    3520:       2100            movs    r1,#0
    3522:       f7ff ffc5       bl     0x34b0
    3526:       42a0            cmp     r0, r4
    3528:       d900            bls.n  0x352c
    352a:       0020            movs    r0, r4
    352c:       2300            movs    r3,#0
    352e:       4905            ldr     r1, [pc, #20]    ; (0x3544)
    3530:       42a3            cmp     r3, r4
    3532:       d003            beq.n  0x353c
    3534:       5cca            ldrb    r2, [r1, r3]
    3536:       54ea            strb    r2, [r5, r3]
    3538:       3301            adds    r3, #1
    353a:       e7f9            b.n    0x3530
    353c:       bd70            pop    {r4, r5, r6, pc}
    353e:       46c0            nop               ; (mov r8, r8)
    3540:       090c            lsrs    r4, r1, #4
    3542:       2000            movs    r0,#0
    3544:       0640            lsls    r0, r0, #25
    3546:       2000            movs    r0,#0
    3548:       b510            push   {r4,lr}
    354a:       480c            ldr     r0, [pc, #48]    ; (0x357c)
    354c:       b2c9            uxtb    r1, r1
    354e:       0149            lsls    r1, r1, #5
    3550:       1842            adds    r2, r0, r1
    3552:       6893            ldr     r3, [r2, #8]
    3554:       049b            lsls    r3, r3, #18
    3556:       0c9b            lsrs    r3, r3, #18
    3558:       2b3f            cmp     r3,#63     ; 0x3f
    355a:       d90b            bls.n  0x3574
    355c:       6894            ldr     r4, [r2, #8]
    355e:       3b40            subs    r3, #64     ; 0x40
    3560:       049b            lsls    r3, r3, #18
    3562:       0ba4            lsrs    r4, r4, #14
    3564:       0c9b            lsrs    r3, r3, #18
    3566:       03a4            lsls    r4, r4, #14
    3568:       4323            orrs    r3, r4
    356a:       6093            str     r3, [r2, #8]
    356c:       1841            adds    r1, r0, r1
    356e:       6888            ldr     r0, [r1, #8]
    3570:       b2c0            uxtb    r0, r0
    3572:       bd10            pop    {r4, pc}
    3574:       6893            ldr     r3, [r2, #8]
    3576:       0b9b            lsrs    r3, r3, #14
    3578:       039b            lsls    r3, r3, #14
    357a:       e7f6            b.n    0x356a
    357c:       090c            lsrs    r4, r1, #4
    357e:       2000            movs    r0,#0
    3580:       b5f0            push   {r4, r5, r6, r7,lr}
    3582:       001c            movs    r4, r3
    3584:       4b2f            ldr     r3, [pc, #188]    ; (0x3644)
    3586:       b085            sub     sp, #20
    3588:       681b            ldr     r3, [r3, #0]
    358a:       0006            movs    r6, r0
    358c:       000d            movs    r5, r1
    358e:       9201            str     r2, [sp, #4]
    3590:       2b00            cmp     r3,#0
    3592:       d054            beq.n  0x363e
    3594:       4f2c            ldr     r7, [pc, #176]    ; (0x3648)
    3596:       783b            ldrb    r3, [r7, #0]
    3598:       b2d9            uxtb    r1, r3
    359a:       2b00            cmp     r3,#0
    359c:       d102            bne.n  0x35a4
    359e:       201f            movs    r0,#31
    35a0:       f7ff f8c0       bl     0x2724
    35a4:       2364            movs    r3,#100    ; 0x64
    35a6:       703b            strb    r3, [r7, #0]
    35a8:       4b28            ldr     r3, [pc, #160]    ; (0x364c)
    35aa:       00aa            lsls    r2, r5, #2
    35ac:       58d0            ldr     r0, [r2, r3]
    35ae:       2800            cmp     r0,#0
    35b0:       d008            beq.n  0x35c4
    35b2:       6803            ldr     r3, [r0, #0]
    35b4:       0022            movs    r2, r4
    35b6:       685b            ldr     r3, [r3, #4]
    35b8:       9901            ldr     r1, [sp, #4]
    35ba:       4798            blx     r3
    35bc:       0004            movs    r4, r0
    35be:       0020            movs    r0, r4
    35c0:       b005            add     sp, #20
    35c2:       bdf0            pop    {r4, r5, r6, r7, pc}
    35c4:       0029            movs    r1, r5
    35c6:       0030            movs    r0, r6
    35c8:       f7ff ff46       bl     0x3458
    35cc:       4284            cmp     r4, r0
    35ce:       d904            bls.n  0x35da
    35d0:       0029            movs    r1, r5
    35d2:       0030            movs    r0, r6
    35d4:       f7ff ff40       bl     0x3458
    35d8:       0004            movs    r4, r0
    35da:       0029            movs    r1, r5
    35dc:       0030            movs    r0, r6
    35de:       f7ff ffb3       bl     0x3548
    35e2:       2101            movs    r1,#1
    35e4:       b2eb            uxtb    r3, r5
    35e6:       4f1a            ldr     r7, [pc, #104]    ; (0x3650)
    35e8:       9303            str     r3, [sp, #12]
    35ea:       015b            lsls    r3, r3, #5
    35ec:       9302            str     r3, [sp, #8]
    35ee:       9a02            ldr     r2, [sp, #8]
    35f0:       683b            ldr     r3, [r7, #0]
    35f2:       9801            ldr     r0, [sp, #4]
    35f4:       189b            adds    r3, r3, r2
    35f6:       33ff            adds    r3, #255     ; 0xff
    35f8:       7a5a            ldrb    r2, [r3, #9]
    35fa:       430a            orrs    r2, r1
    35fc:       725a            strb    r2, [r3, #9]
    35fe:       4b15            ldr     r3, [pc, #84]    ; (0x3654)
    3600:       01a9            lsls    r1, r5, #6
    3602:       0022            movs    r2, r4
    3604:       18c9            adds    r1, r1, r3
    3606:       f001 f84f       bl     0x46a8
    360a:       2c00            cmp     r4,#0
    360c:       d0d7            beq.n  0x35be
    360e:       0029            movs    r1, r5
    3610:       0030            movs    r0, r6
    3612:       f7ff ff21       bl     0x3458
    3616:       2800            cmp     r0,#0
    3618:       d1d1            bne.n  0x35be
    361a:       2140            movs    r1,#64    ; 0x40
    361c:       9b03            ldr     r3, [sp, #12]
    361e:       683a            ldr     r2, [r7, #0]
    3620:       3308            adds    r3, #8
    3622:       015b            lsls    r3, r3, #5
    3624:       18d3            adds    r3, r2, r3
    3626:       7918            ldrb    r0, [r3, #4]
    3628:       4301            orrs    r1, r0
    362a:       7119            strb    r1, [r3, #4]
    362c:       2101            movs    r1,#1
    362e:       71d9            strb    r1, [r3, #7]
    3630:       9b02            ldr     r3, [sp, #8]
    3632:       18d3            adds    r3, r2, r3
    3634:       33ff            adds    r3, #255     ; 0xff
    3636:       7a9a            ldrb    r2, [r3, #10]
    3638:       430a            orrs    r2, r1
    363a:       729a            strb    r2, [r3, #10]
    363c:       e7bf            b.n    0x35be
    363e:       2401            movs    r4,#1
    3640:       4264            negs    r4, r4
    3642:       e7bc            b.n    0x35be
    3644:       0904            lsrs    r4, r0, #4
    3646:       2000            movs    r0,#0
    3648:       0474            lsls    r4, r6, #17
    364a:       2000            movs    r0,#0
    364c:       0458            lsls    r0, r3, #17
    364e:       2000            movs    r0,#0
    3650:       090c            lsrs    r4, r1, #4
    3652:       2000            movs    r0,#0
    3654:       0640            lsls    r0, r0, #25
    3656:       2000            movs    r0,#0
    3658:       b513            push   {r0, r1, r4,lr}
    365a:       466b            mov     r3, sp
    365c:       1ddc            adds    r4, r3, #7
    365e:       0022            movs    r2, r4
    3660:       2301            movs    r3,#1
    3662:       f7ff ff8d       bl     0x3580
    3666:       2801            cmp     r0,#1
    3668:       d101            bne.n  0x366e
    366a:       7820            ldrb    r0, [r4, #0]
    366c:       bd16            pop    {r1, r2, r4, pc}
    366e:       2001            movs    r0,#1
    3670:       4240            negs    r0, r0
    3672:       e7fb            b.n    0x366c
    3674:       b5f0            push   {r4, r5, r6, r7,lr}
    3676:       001c            movs    r4, r3
    3678:       4b3a            ldr     r3, [pc, #232]    ; (0x3764)
    367a:       b085            sub     sp, #20
    367c:       681b            ldr     r3, [r3, #0]
    367e:       000e            movs    r6, r1
    3680:       9201            str     r2, [sp, #4]
    3682:       2b00            cmp     r3,#0
    3684:       d03f            beq.n  0x3706
    3686:       2380            movs    r3,#128    ; 0x80
    3688:       01db            lsls    r3, r3, #7
    368a:       429c            cmp     r4, r3
    368c:       d83b            bhi.n  0x3706
    368e:       4d36            ldr     r5, [pc, #216]    ; (0x3768)
    3690:       782b            ldrb    r3, [r5, #0]
    3692:       b2d9            uxtb    r1, r3
    3694:       2b00            cmp     r3,#0
    3696:       d102            bne.n  0x369e
    3698:       2020            movs    r0,#32
    369a:       f7ff f843       bl     0x2724
    369e:       2364            movs    r3,#100    ; 0x64
    36a0:       2700            movs    r7,#0
    36a2:       702b            strb    r3, [r5, #0]
    36a4:       4b31            ldr     r3, [pc, #196]    ; (0x376c)
    36a6:       01b2            lsls    r2, r6, #6
    36a8:       18d3            adds    r3, r2, r3
    36aa:       9302            str     r3, [sp, #8]
    36ac:       2c00            cmp     r4,#0
    36ae:       d02c            beq.n  0x370a
    36b0:       4b2f            ldr     r3, [pc, #188]    ; (0x3770)
    36b2:       681b            ldr     r3, [r3, #0]
    36b4:       9303            str     r3, [sp, #12]
    36b6:       23ff            movs    r3,#255    ; 0xff
    36b8:       4033            ands    r3, r6
    36ba:       001d            movs    r5, r3
    36bc:       9300            str     r3, [sp, #0]
    36be:       3508            adds    r5, #8
    36c0:       9b03            ldr     r3, [sp, #12]
    36c2:       016d            lsls    r5, r5, #5
    36c4:       195d            adds    r5, r3, r5
    36c6:       79ab            ldrb    r3, [r5, #6]
    36c8:       09db            lsrs    r3, r3, #7
    36ca:       d021            beq.n  0x3710
    36cc:       4b29            ldr     r3, [pc, #164]    ; (0x3774)
    36ce:       492a            ldr     r1, [pc, #168]    ; (0x3778)
    36d0:       6818            ldr     r0, [r3, #0]
    36d2:       f000 ff25       bl     0x4520
    36d6:       4b29            ldr     r3, [pc, #164]    ; (0x377c)
    36d8:       2117            movs    r1,#23
    36da:       4358            muls    r0, r3
    36dc:       f000 ff20       bl     0x4520
    36e0:       4b27            ldr     r3, [pc, #156]    ; (0x3780)
    36e2:       79ea            ldrb    r2, [r5, #7]
    36e4:       0792            lsls    r2, r2, #30
    36e6:       d413            bmi.n  0x3710
    36e8:       5d9a            ldrb    r2, [r3, r6]
    36ea:       2a00            cmp     r2,#0
    36ec:       d101            bne.n  0x36f2
    36ee:       3801            subs    r0, #1
    36f0:       d2f7            bcs.n  0x36e2
    36f2:       2201            movs    r2,#1
    36f4:       559a            strb    r2, [r3, r6]
    36f6:       9b00            ldr     r3, [sp, #0]
    36f8:       015a            lsls    r2, r3, #5
    36fa:       4b1d            ldr     r3, [pc, #116]    ; (0x3770)
    36fc:       189b            adds    r3, r3, r2
    36fe:       699a            ldr     r2, [r3, #24]
    3700:       0b92            lsrs    r2, r2, #14
    3702:       0392            lsls    r2, r2, #14
    3704:       619a            str     r2, [r3, #24]
    3706:       2701            movs    r7,#1
    3708:       427f            negs    r7, r7
    370a:       0038            movs    r0, r7
    370c:       b005            add     sp, #20
    370e:       bdf0            pop    {r4, r5, r6, r7, pc}
    3710:       2200            movs    r2,#0
    3712:       4b1b            ldr     r3, [pc, #108]    ; (0x3780)
    3714:       0025            movs    r5, r4
    3716:       559a            strb    r2, [r3, r6]
    3718:       2c40            cmp     r4,#64     ; 0x40
    371a:       d900            bls.n  0x371e
    371c:       2540            movs    r5,#64    ; 0x40
    371e:       002a            movs    r2, r5
    3720:       9901            ldr     r1, [sp, #4]
    3722:       9802            ldr     r0, [sp, #8]
    3724:       f000 ffc0       bl     0x46a8
    3728:       9b00            ldr     r3, [sp, #0]
    372a:       04a9            lsls    r1, r5, #18
    372c:       015a            lsls    r2, r3, #5
    372e:       4b10            ldr     r3, [pc, #64]    ; (0x3770)
    3730:       0c89            lsrs    r1, r1, #18
    3732:       189b            adds    r3, r3, r2
    3734:       9a02            ldr     r2, [sp, #8]
    3736:       197f            adds    r7, r7, r5
    3738:       615a            str     r2, [r3, #20]
    373a:       699a            ldr     r2, [r3, #24]
    373c:       1b64            subs    r4, r4, r5
    373e:       0b92            lsrs    r2, r2, #14
    3740:       0392            lsls    r2, r2, #14
    3742:       430a            orrs    r2, r1
    3744:       619a            str     r2, [r3, #24]
    3746:       9b00            ldr     r3, [sp, #0]
    3748:       9a03            ldr     r2, [sp, #12]
    374a:       3308            adds    r3, #8
    374c:       015b            lsls    r3, r3, #5
    374e:       18d3            adds    r3, r2, r3
    3750:       2202            movs    r2,#2
    3752:       71da            strb    r2, [r3, #7]
    3754:       7959            ldrb    r1, [r3, #5]
    3756:       3a82            subs    r2, #130     ; 0x82
    3758:       430a            orrs    r2, r1
    375a:       715a            strb    r2, [r3, #5]
    375c:       9b01            ldr     r3, [sp, #4]
    375e:       195b            adds    r3, r3, r5
    3760:       9301            str     r3, [sp, #4]
    3762:       e7a3            b.n    0x36ac
    3764:       0904            lsrs    r4, r0, #4
    3766:       2000            movs    r0,#0
    3768:       0475            lsls    r5, r6, #17
    376a:       2000            movs    r0,#0
    376c:       0480            lsls    r0, r0, #18
    376e:       2000            movs    r0,#0
    3770:       090c            lsrs    r4, r1, #4
    3772:       2000            movs    r0,#0
    3774:       0000            movs    r0, r0
    3776:       2000            movs    r0,#0
    3778:       4240            negs    r0, r0
    377a:       000f            movs    r7, r1
    377c:       1170            asrs    r0, r6, #5
    377e:       0001            movs    r1, r0
    3780:       0477            lsls    r7, r6, #17
    3782:       2000            movs    r0,#0
    3784:       b570            push   {r4, r5, r6,lr}
    3786:       000c            movs    r4, r1
    3788:       001d            movs    r5, r3
    378a:       4b0d            ldr     r3, [pc, #52]    ; (0x37c0)
    378c:       01a6            lsls    r6, r4, #6
    378e:       18f6            adds    r6, r6, r3
    3790:       0011            movs    r1, r2
    3792:       0030            movs    r0, r6
    3794:       002a            movs    r2, r5
    3796:       f000 ff87       bl     0x46a8
    379a:       b2e4            uxtb    r4, r4
    379c:       4a09            ldr     r2, [pc, #36]    ; (0x37c4)
    379e:       0164            lsls    r4, r4, #5
    37a0:       1914            adds    r4, r2, r4
    37a2:       6166            str     r6, [r4, #20]
    37a4:       69a3            ldr     r3, [r4, #24]
    37a6:       4908            ldr     r1, [pc, #32]    ; (0x37c8)
    37a8:       0028            movs    r0, r5
    37aa:       400b            ands    r3, r1
    37ac:       61a3            str     r3, [r4, #24]
    37ae:       69a1            ldr     r1, [r4, #24]
    37b0:       04ab            lsls    r3, r5, #18
    37b2:       0b89            lsrs    r1, r1, #14
    37b4:       0c9b            lsrs    r3, r3, #18
    37b6:       0389            lsls    r1, r1, #14
    37b8:       4319            orrs    r1, r3
    37ba:       61a1            str     r1, [r4, #24]
    37bc:       bd70            pop    {r4, r5, r6, pc}
    37be:       46c0            nop               ; (mov r8, r8)
    37c0:       0480            lsls    r0, r0, #18
    37c2:       2000            movs    r0,#0
    37c4:       090c            lsrs    r4, r1, #4
    37c6:       2000            movs    r0,#0
    37c8:       3fff            subs    r7, #255     ; 0xff
    37ca:       f000 b5f7       b.w    0x4043bc
    37ce:       4b10            ldr     r3, [pc, #64]    ; (0x3810)
    37d0:       000f            movs    r7, r1
    37d2:       781b            ldrb    r3, [r3, #0]
    37d4:       0014            movs    r4, r2
    37d6:       9001            str     r0, [sp, #4]
    37d8:       2b00            cmp     r3,#0
    37da:       d10c            bne.n  0x37f6
    37dc:       4b0d            ldr     r3, [pc, #52]    ; (0x3814)
    37de:       0016            movs    r6, r2
    37e0:       781d            ldrb    r5, [r3, #0]
    37e2:       2d00            cmp     r5,#0
    37e4:       d009            beq.n  0x37fa
    37e6:       4e0c            ldr     r6, [pc, #48]    ; (0x3818)
    37e8:       480c            ldr     r0, [pc, #48]    ; (0x381c)
    37ea:       8835            ldrh    r5, [r6, #0]
    37ec:       1828            adds    r0, r5, r0
    37ee:       192d            adds    r5, r5, r4
    37f0:       f000 ff5a       bl     0x46a8
    37f4:       8035            strh    r5, [r6, #0]
    37f6:       0020            movs    r0, r4
    37f8:       bdfe            pop    {r1, r2, r3, r4, r5, r6, r7, pc}
    37fa:       2e00            cmp     r6,#0
    37fc:       d0fb            beq.n  0x37f6
    37fe:       0033            movs    r3, r6
    3800:       197a            adds    r2, r7, r5
    3802:       2100            movs    r1,#0
    3804:       9801            ldr     r0, [sp, #4]
    3806:       f7ff ffbd       bl     0x3784
    380a:       182d            adds    r5, r5, r0
    380c:       1a36            subs    r6, r6, r0
    380e:       e7f4            b.n    0x37fa
    3810:       0800            lsrs    r0, r0, #32
    3812:       2000            movs    r0,#0
    3814:       0901            lsrs    r1, r0, #4
    3816:       2000            movs    r0,#0
    3818:       0902            lsrs    r2, r0, #4
    381a:       2000            movs    r0,#0
    381c:       0801            lsrs    r1, r0, #32
    381e:       2000            movs    r0,#0
    3820:       b5f8            push   {r3, r4, r5, r6, r7,lr}
    3822:       2000            movs    r0,#0
    3824:       000d            movs    r5, r1
    3826:       0014            movs    r4, r2
    3828:       af00            add     r7, sp, #0
    382a:       2a01            cmp     r2,#1
    382c:       d927            bls.n  0x387e
    382e:       1dd3            adds    r3, r2, #7
    3830:       466a            mov     r2, sp
    3832:       08db            lsrs    r3, r3, #3
    3834:       00db            lsls    r3, r3, #3
    3836:       1ad3            subs    r3, r2, r3
    3838:       469d            mov     sp, r3
    383a:       0008            movs    r0, r1
    383c:       f001 f824       bl     0x4888
    3840:       466e            mov     r6, sp
    3842:       2303            movs    r3,#3
    3844:       2202            movs    r2,#2
    3846:       2100            movs    r1,#0
    3848:       3001            adds    r0, #1
    384a:       0040            lsls    r0, r0, #1
    384c:       7030            strb    r0, [r6, #0]
    384e:       7073            strb    r3, [r6, #1]
    3850:       42a2            cmp     r2, r4
    3852:       d20d            bcs.n  0x3870
    3854:       7828            ldrb    r0, [r5, #0]
    3856:       2800            cmp     r0,#0
    3858:       d00a            beq.n  0x3870
    385a:       1c53            adds    r3, r2, #1
    385c:       b2db            uxtb    r3, r3
    385e:       3501            adds    r5, #1
    3860:       54b0            strb    r0, [r6, r2]
    3862:       429c            cmp     r4, r3
    3864:       d003            beq.n  0x386e
    3866:       3202            adds    r2, #2
    3868:       54f1            strb    r1, [r6, r3]
    386a:       b2d2            uxtb    r2, r2
    386c:       e7f0            b.n    0x3850
    386e:       0022            movs    r2, r4
    3870:       0031            movs    r1, r6
    3872:       4804            ldr     r0, [pc, #16]    ; (0x3884)
    3874:       f7ff ffaa       bl     0x37cc
    3878:       1e43            subs    r3, r0, #1
    387a:       4198            sbcs    r0, r3
    387c:       b2c0            uxtb    r0, r0
    387e:       46bd            mov     sp, r7
    3880:       bdf8            pop    {r3, r4, r5, r6, r7, pc}
    3882:       46c0            nop               ; (mov r8, r8)
    3884:       0454            lsls    r4, r2, #17
    3886:       2000            movs    r0,#0
    3888:       b5f0            push   {r4, r5, r6, r7,lr}
    388a:       2500            movs    r5,#0
    388c:       2701            movs    r7,#1
    388e:       b085            sub     sp, #20
    3890:       4b18            ldr     r3, [pc, #96]    ; (0x38f4)
    3892:       000e            movs    r6, r1
    3894:       4669            mov     r1, sp
    3896:       701f            strb    r7, [r3, #0]
    3898:       0004            movs    r4, r0
    389a:       9500            str     r5, [sp, #0]
    389c:       f7ff fc44       bl     0x3128
    38a0:       4b15            ldr     r3, [pc, #84]    ; (0x38f8)
    38a2:       a901            add     r1, sp, #4
    38a4:       800b            strh    r3, [r1, #0]
    38a6:       3b6a            subs    r3, #106     ; 0x6a
    38a8:       3bff            subs    r3, #255     ; 0xff
    38aa:       71cb            strb    r3, [r1, #7]
    38ac:       3b6e            subs    r3, #110     ; 0x6e
    38ae:       720b            strb    r3, [r1, #8]
    38b0:       9b00            ldr     r3, [sp, #0]
    38b2:       0032            movs    r2, r6
    38b4:       3309            adds    r3, #9
    38b6:       804b            strh    r3, [r1, #2]
    38b8:       4b0e            ldr     r3, [pc, #56]    ; (0x38f4)
    38ba:       718d            strb    r5, [r1, #6]
    38bc:       714f            strb    r7, [r1, #5]
    38be:       7108            strb    r0, [r1, #4]
    38c0:       701d            strb    r5, [r3, #0]
    38c2:       2e09            cmp     r6,#9
    38c4:       d00f            beq.n  0x38e6
    38c6:       4e0d            ldr     r6, [pc, #52]    ; (0x38fc)
    38c8:       2209            movs    r2,#9
    38ca:       7037            strb    r7, [r6, #0]
    38cc:       4f0c            ldr     r7, [pc, #48]    ; (0x3900)
    38ce:       0020            movs    r0, r4
    38d0:       9500            str     r5, [sp, #0]
    38d2:       803d            strh    r5, [r7, #0]
    38d4:       f7ff ff7a       bl     0x37cc
    38d8:       4669            mov     r1, sp
    38da:       0020            movs    r0, r4
    38dc:       f7ff fc24       bl     0x3128
    38e0:       883a            ldrh    r2, [r7, #0]
    38e2:       4908            ldr     r1, [pc, #32]    ; (0x3904)
    38e4:       7035            strb    r5, [r6, #0]
    38e6:       0020            movs    r0, r4
    38e8:       f7ff ff70       bl     0x37cc
    38ec:       2001            movs    r0,#1
    38ee:       b005            add     sp, #20
    38f0:       bdf0            pop    {r4, r5, r6, r7, pc}
    38f2:       46c0            nop               ; (mov r8, r8)
    38f4:       0800            lsrs    r0, r0, #32
    38f6:       2000            movs    r0,#0
    38f8:       0209            lsls    r1, r1, #8
    38fa:       0000            movs    r0, r0
    38fc:       0901            lsrs    r1, r0, #4
    38fe:       2000            movs    r0,#0
    3900:       0902            lsrs    r2, r0, #4
    3902:       2000            movs    r0,#0
    3904:       0801            lsrs    r1, r0, #32
    3906:       2000            movs    r0,#0
    3908:       b5f0            push   {r4, r5, r6, r7,lr}
    390a:       78cf            ldrb    r7, [r1, #3]
    390c:       0005            movs    r5, r0
    390e:       000e            movs    r6, r1
    3910:       b093            sub     sp, #76     ; 0x4c
    3912:       2f02            cmp     r7,#2
    3914:       d109            bne.n  0x392a
    3916:       88c9            ldrh    r1, [r1, #6]
    3918:       482b            ldr     r0, [pc, #172]    ; (0x39c8)
    391a:       f7ff ffb5       bl     0x3888
    391e:       1e44            subs    r4, r0, #1
    3920:       41a0            sbcs    r0, r4
    3922:       b2c4            uxtb    r4, r0
    3924:       0020            movs    r0, r4
    3926:       b013            add     sp, #76     ; 0x4c
    3928:       bdf0            pop    {r4, r5, r6, r7, pc}
    392a:       f000 fd95       bl     0x4458
    392e:       0031            movs    r1, r6
    3930:       f000 fd72       bl     0x4418
    3934:       2800            cmp     r0,#0
    3936:       d003            beq.n  0x3940
    3938:       17c4            asrs    r4, r0, #31
    393a:       1a24            subs    r4, r4, r0
    393c:       0fe4            lsrs    r4, r4, #31
    393e:       e7f1            b.n    0x3924
    3940:       2f01            cmp     r7,#1
    3942:       d10b            bne.n  0x395c
    3944:       88f2            ldrh    r2, [r6, #6]
    3946:       4921            ldr     r1, [pc, #132]    ; (0x39cc)
    3948:       2a11            cmp     r2,#17
    394a:       d811            bhi.n  0x3970
    394c:       b2d2            uxtb    r2, r2
    394e:       2a00            cmp     r2,#0
    3950:       d00e            beq.n  0x3970
    3952:       0028            movs    r0, r5
    3954:       f7ff ff3a       bl     0x37cc
    3958:       2401            movs    r4,#1
    395a:       e7e3            b.n    0x3924
    395c:       0004            movs    r4, r0
    395e:       2f03            cmp     r7,#3
    3960:       d1e0            bne.n  0x3924
    3962:       78b3            ldrb    r3, [r6, #2]
    3964:       2b00            cmp     r3,#0
    3966:       d105            bne.n  0x3974
    3968:       88f2            ldrh    r2, [r6, #6]
    396a:       4919            ldr     r1, [pc, #100]    ; (0x39d0)
    396c:       2a03            cmp     r2,#3
    396e:       d9ed            bls.n  0x394c
    3970:       780a            ldrb    r2, [r1, #0]
    3972:       e7ee            b.n    0x3952
    3974:       2b02            cmp     r3,#2
    3976:       d106            bne.n  0x3986
    3978:       79b2            ldrb    r2, [r6, #6]
    397a:       4916            ldr     r1, [pc, #88]    ; (0x39d4)
    397c:       0028            movs    r0, r5
    397e:       f7ff ff4f       bl     0x3820
    3982:       0004            movs    r4, r0
    3984:       e7ce            b.n    0x3924
    3986:       2b01            cmp     r3,#1
    3988:       d102            bne.n  0x3990
    398a:       79b2            ldrb    r2, [r6, #6]
    398c:       4912            ldr     r1, [pc, #72]    ; (0x39d8)
    398e:       e7f5            b.n    0x397c
    3990:       2b03            cmp     r3,#3
    3992:       d1c7            bne.n  0x3924
    3994:       4b11            ldr     r3, [pc, #68]    ; (0x39dc)
    3996:       a901            add     r1, sp, #4
    3998:       6818            ldr     r0, [r3, #0]
    399a:       f7ff f9d4       bl     0x2d46
    399e:       4b10            ldr     r3, [pc, #64]    ; (0x39e0)
    39a0:       a903            add     r1, sp, #12
    39a2:       6818            ldr     r0, [r3, #0]
    39a4:       f7ff f9cf       bl     0x2d46
    39a8:       4b0e            ldr     r3, [pc, #56]    ; (0x39e4)
    39aa:       a905            add     r1, sp, #20
    39ac:       6818            ldr     r0, [r3, #0]
    39ae:       f7ff f9ca       bl     0x2d46
    39b2:       4b0d            ldr     r3, [pc, #52]    ; (0x39e8)
    39b4:       a907            add     r1, sp, #28
    39b6:       6818            ldr     r0, [r3, #0]
    39b8:       f7ff f9c5       bl     0x2d46
    39bc:       466b            mov     r3, sp
    39be:       3305            adds    r3, #5
    39c0:       77dc            strb    r4, [r3, #31]
    39c2:       79b2            ldrb    r2, [r6, #6]
    39c4:       a901            add     r1, sp, #4
    39c6:       e7d9            b.n    0x397c
    39c8:       0454            lsls    r4, r2, #17
    39ca:       2000            movs    r0,#0
    39cc:       4e89            ldr     r6, [pc, #548]    ; (0x3bf4)
    39ce:       0000            movs    r0, r0
    39d0:       4e7c            ldr     r6, [pc, #496]    ; (0x3bc4)
    39d2:       0000            movs    r0, r0
    39d4:       4e68            ldr     r6, [pc, #416]    ; (0x3b78)
    39d6:       0000            movs    r0, r0
    39d8:       4e80            ldr     r6, [pc, #512]    ; (0x3bdc)
    39da:       0000            movs    r0, r0
    39dc:       a00c            add    r0, pc, #48; (adr r0, 0x3a10)
    39de:       0080            lsls    r0, r0, #2
    39e0:       a040            add    r0, pc, #256; (adr r0, 0x3ae4)
    39e2:       0080            lsls    r0, r0, #2
    39e4:       a044            add    r0, pc, #272; (adr r0, 0x3af8)
    39e6:       0080            lsls    r0, r0, #2
    39e8:       a048            add    r0, pc, #288; (adr r0, 0x3b0c)
    39ea:       0080            lsls    r0, r0, #2
    39ec:       b537            push   {r0, r1, r2, r4, r5,lr}
    39ee:       0005            movs    r5, r0
    39f0:       7848            ldrb    r0, [r1, #1]
    39f2:       000c            movs    r4, r1
    39f4:       280b            cmp     r0,#11
    39f6:       d810            bhi.n  0x3a1a
    39f8:       f000 fd88       bl     0x450c
    39fc:       1b06            subs    r6, r0, r4
    39fe:       310f            adds    r1, #15
    3a00:       480f            ldr     r0, [pc, #60]    ; (0x3a40)
    3a02:       754d            strb    r5, [r1, #21]
    3a04:       5451            strb    r1, [r2, r1]
    3a06:       716e            strb    r6, [r5, #5]
    3a08:       7809            ldrb    r1, [r1, #0]
    3a0a:       aa01            add     r2, sp, #4
    3a0c:       2900            cmp     r1,#0
    3a0e:       d106            bne.n  0x3a1e
    3a10:       2302            movs    r3,#2
    3a12:       8011            strh    r1, [r2, #0]
    3a14:       0028            movs    r0, r5
    3a16:       f7ff feb5       bl     0x3784
    3a1a:       2001            movs    r0,#1
    3a1c:       bd3e            pop    {r1, r2, r3, r4, r5, pc}
    3a1e:       2300            movs    r3,#0
    3a20:       8013            strh    r3, [r2, #0]
    3a22:       4b32            ldr     r3, [pc, #200]    ; (0x3aec)
    3a24:       781b            ldrb    r3, [r3, #0]
    3a26:       2b01            cmp     r3,#1
    3a28:       d100            bne.n  0x3a2c
    3a2a:       7013            strb    r3, [r2, #0]
    3a2c:       2302            movs    r3,#2
    3a2e:       2100            movs    r1,#0
    3a30:       e7f0            b.n    0x3a14
    3a32:       788a            ldrb    r2, [r1, #2]
    3a34:       2300            movs    r3,#0
    3a36:       2a01            cmp     r2,#1
    3a38:       d109            bne.n  0x3a4e
    3a3a:       466a            mov     r2, sp
    3a3c:       8093            strh    r3, [r2, #4]
    3a3e:       4b2c            ldr     r3, [pc, #176]    ; (0x3af0)
    3a40:       781b            ldrb    r3, [r3, #0]
    3a42:       2b01            cmp     r3,#1
    3a44:       d100            bne.n  0x3a48
    3a46:       7113            strb    r3, [r2, #4]
    3a48:       2302            movs    r3,#2
    3a4a:       aa01            add     r2, sp, #4
    3a4c:       e7ef            b.n    0x3a2e
    3a4e:       4a27            ldr     r2, [pc, #156]    ; (0x3aec)
    3a50:       7013            strb    r3, [r2, #0]
    3a52:       4a28            ldr     r2, [pc, #160]    ; (0x3af4)
    3a54:       6993            ldr     r3, [r2, #24]
    3a56:       0b9b            lsrs    r3, r3, #14
    3a58:       039b            lsls    r3, r3, #14
    3a5a:       6193            str     r3, [r2, #24]
    3a5c:       e7dd            b.n    0x3a1a
    3a5e:       788c            ldrb    r4, [r1, #2]
    3a60:       2c01            cmp     r4,#1
    3a62:       d107            bne.n  0x3a74
    3a64:       4b22            ldr     r3, [pc, #136]    ; (0x3af0)
    3a66:       aa01            add     r2, sp, #4
    3a68:       701c            strb    r4, [r3, #0]
    3a6a:       4b23            ldr     r3, [pc, #140]    ; (0x3af8)
    3a6c:       781b            ldrb    r3, [r3, #0]
    3a6e:       7013            strb    r3, [r2, #0]
    3a70:       0023            movs    r3, r4
    3a72:       e7dc            b.n    0x3a2e
    3a74:       2000            movs    r0,#0
    3a76:       4284            cmp     r4, r0
    3a78:       d1d0            bne.n  0x3a1c
    3a7a:       4b1c            ldr     r3, [pc, #112]    ; (0x3aec)
    3a7c:       3001            adds    r0, #1
    3a7e:       4a1d            ldr     r2, [pc, #116]    ; (0x3af4)
    3a80:       7018            strb    r0, [r3, #0]
    3a82:       6993            ldr     r3, [r2, #24]
    3a84:       0b9b            lsrs    r3, r3, #14
    3a86:       039b            lsls    r3, r3, #14
    3a88:       6193            str     r3, [r2, #24]
    3a8a:       e7c7            b.n    0x3a1c
    3a8c:       0028            movs    r0, r5
    3a8e:       7889            ldrb    r1, [r1, #2]
    3a90:       f7ff fc16       bl     0x32c0
    3a94:       e7c1            b.n    0x3a1a
    3a96:       0028            movs    r0, r5
    3a98:       f7ff ff36       bl     0x3908
    3a9c:       e7be            b.n    0x3a1c
    3a9e:       2301            movs    r3,#1
    3aa0:       4a16            ldr     r2, [pc, #88]    ; (0x3afc)
    3aa2:       e7c4            b.n    0x3a2e
    3aa4:       780b            ldrb    r3, [r1, #0]
    3aa6:       2000            movs    r0,#0
    3aa8:       06db            lsls    r3, r3, #27
    3aaa:       d1b7            bne.n  0x3a1c
    3aac:       0028            movs    r0, r5
    3aae:       f7ff fcc1       bl     0x3434
    3ab2:       202a            movs    r0,#42    ; 0x2a
    3ab4:       2102            movs    r1,#2
    3ab6:       78a2            ldrb    r2, [r4, #2]
    3ab8:       4b10            ldr     r3, [pc, #64]    ; (0x3afc)
    3aba:       30ff            adds    r0, #255     ; 0xff
    3abc:       601a            str     r2, [r3, #0]
    3abe:       4a0d            ldr     r2, [pc, #52]    ; (0x3af4)
    3ac0:       6813            ldr     r3, [r2, #0]
    3ac2:       5c1c            ldrb    r4, [r3, r0]
    3ac4:       4321            orrs    r1, r4
    3ac6:       244a            movs    r4,#74    ; 0x4a
    3ac8:       5419            strb    r1, [r3, r0]
    3aca:       34ff            adds    r4, #255     ; 0xff
    3acc:       5d19            ldrb    r1, [r3, r4]
    3ace:       3829            subs    r0, #41     ; 0x29
    3ad0:       38ff            subs    r0, #255     ; 0xff
    3ad2:       4301            orrs    r1, r0
    3ad4:       5519            strb    r1, [r3, r4]
    3ad6:       e7d4            b.n    0x3a82
    3ad8:       2301            movs    r3,#1
    3ada:       4a09            ldr     r2, [pc, #36]    ; (0x3b00)
    3adc:       e7a7            b.n    0x3a2e
    3ade:       788a            ldrb    r2, [r1, #2]
    3ae0:       4b07            ldr     r3, [pc, #28]    ; (0x3b00)
    3ae2:       601a            str     r2, [r3, #0]
    3ae4:       e7b5            b.n    0x3a52
    3ae6:       2000            movs    r0,#0
    3ae8:       e798            b.n    0x3a1c
    3aea:       46c0            nop               ; (mov r8, r8)
    3aec:       0476            lsls    r6, r6, #17
    3aee:       2000            movs    r0,#0
    3af0:       047e            lsls    r6, r7, #17
    3af2:       2000            movs    r0,#0
    3af4:       090c            lsrs    r4, r1, #4
    3af6:       2000            movs    r0,#0
    3af8:       4df2            ldr     r5, [pc, #968]    ; (0x3ec4)
    3afa:       0000            movs    r0, r0
    3afc:       0904            lsrs    r4, r0, #4
    3afe:       2000            movs    r0,#0
    3b00:       0908            lsrs    r0, r1, #4
    3b02:       2000            movs    r0,#0
    3b04:       4b4b            ldr     r3, [pc, #300]    ; (0x3c34)
    3b06:       b5f7            push   {r0, r1, r2, r4, r5, r6, r7,lr}
    3b08:       781c            ldrb    r4, [r3, #0]
    3b0a:       0007            movs    r7, r0
    3b0c:       2c00            cmp     r4,#0
    3b0e:       d000            beq.n  0x3b12
    3b10:       e083            b.n    0x3c1a
    3b12:       4e49            ldr     r6, [pc, #292]    ; (0x3c38)
    3b14:       6833            ldr     r3, [r6, #0]
    3b16:       8b9b            ldrh    r3, [r3, #28]
    3b18:       071b            lsls    r3, r3, #28
    3b1a:       d50e            bpl.n  0x3b3a
    3b1c:       0021            movs    r1, r4
    3b1e:       0020            movs    r0, r4
    3b20:       f7ff f938       bl     0x2d94
    3b24:       6832            ldr     r2, [r6, #0]
    3b26:       2310            movs    r3,#16
    3b28:       0011            movs    r1, r2
    3b2a:       31ff            adds    r1, #255     ; 0xff
    3b2c:       7a88            ldrb    r0, [r1, #10]
    3b2e:       4303            orrs    r3, r0
    3b30:       728b            strb    r3, [r1, #10]
    3b32:       4b42            ldr     r3, [pc, #264]    ; (0x3c3c)
    3b34:       601c            str     r4, [r3, #0]
    3b36:       2308            movs    r3,#8
    3b38:       8393            strh    r3, [r2, #28]
    3b3a:       6833            ldr     r3, [r6, #0]
    3b3c:       8b9a            ldrh    r2, [r3, #28]
    3b3e:       0752            lsls    r2, r2, #29
    3b40:       d51f            bpl.n  0x3b82
    3b42:       2204            movs    r2,#4
    3b44:       839a            strh    r2, [r3, #28]
    3b46:       4a3e            ldr     r2, [pc, #248]    ; (0x3c40)
    3b48:       7813            ldrb    r3, [r2, #0]
    3b4a:       2b00            cmp     r3,#0
    3b4c:       d00a            beq.n  0x3b64
    3b4e:       7813            ldrb    r3, [r2, #0]
    3b50:       3b01            subs    r3, #1
    3b52:       b2db            uxtb    r3, r3
    3b54:       7013            strb    r3, [r2, #0]
    3b56:       7813            ldrb    r3, [r2, #0]
    3b58:       2b00            cmp     r3,#0
    3b5a:       d103            bne.n  0x3b64
    3b5c:       2101            movs    r1,#1
    3b5e:       2020            movs    r0,#32
    3b60:       f7fe fde0       bl     0x2724
    3b64:       4a37            ldr     r2, [pc, #220]    ; (0x3c44)
    3b66:       7813            ldrb    r3, [r2, #0]
    3b68:       2b00            cmp     r3,#0
    3b6a:       d00a            beq.n  0x3b82
    3b6c:       7813            ldrb    r3, [r2, #0]
    3b6e:       3b01            subs    r3, #1
    3b70:       b2db            uxtb    r3, r3
    3b72:       7013            strb    r3, [r2, #0]
    3b74:       7813            ldrb    r3, [r2, #0]
    3b76:       2b00            cmp     r3,#0
    3b78:       d103            bne.n  0x3b82
    3b7a:       2101            movs    r1,#1
    3b7c:       201f            movs    r0,#31
    3b7e:       f7fe fdd1       bl     0x2724
    3b82:       6833            ldr     r3, [r6, #0]
    3b84:       33ff            adds    r3, #255     ; 0xff
    3b86:       7a1a            ldrb    r2, [r3, #8]
    3b88:       06d2            lsls    r2, r2, #27
    3b8a:       d51e            bpl.n  0x3bca
    3b8c:       2210            movs    r2,#16
    3b8e:       721a            strb    r2, [r3, #8]
    3b90:       7959            ldrb    r1, [r3, #5]
    3b92:       3230            adds    r2, #48     ; 0x30
    3b94:       430a            orrs    r2, r1
    3b96:       715a            strb    r2, [r3, #5]
    3b98:       2360            movs    r3,#96    ; 0x60
    3b9a:       492b            ldr     r1, [pc, #172]    ; (0x3c48)
    3b9c:       0038            movs    r0, r7
    3b9e:       780a            ldrb    r2, [r1, #0]
    3ba0:       421a            tst     r2, r3
    3ba2:       d13b            bne.n  0x3c1c
    3ba4:       f7ff ff22       bl     0x39ec
    3ba8:       6833            ldr     r3, [r6, #0]
    3baa:       33ff            adds    r3, #255     ; 0xff
    3bac:       2800            cmp     r0,#0
    3bae:       d038            beq.n  0x3c22
    3bb0:       2280            movs    r2,#128    ; 0x80
    3bb2:       7999            ldrb    r1, [r3, #6]
    3bb4:       4252            negs    r2, r2
    3bb6:       430a            orrs    r2, r1
    3bb8:       719a            strb    r2, [r3, #6]
    3bba:       7a1a            ldrb    r2, [r3, #8]
    3bbc:       0652            lsls    r2, r2, #25
    3bbe:       d504            bpl.n  0x3bca
    3bc0:       2240            movs    r2,#64    ; 0x40
    3bc2:       721a            strb    r2, [r3, #8]
    3bc4:       7a59            ldrb    r1, [r3, #9]
    3bc6:       430a            orrs    r2, r1
    3bc8:       725a            strb    r2, [r3, #9]
    3bca:       6833            ldr     r3, [r6, #0]
    3bcc:       2400            movs    r4,#0
    3bce:       8c1d            ldrh    r5, [r3, #32]
    3bd0:       2301            movs    r3,#1
    3bd2:       439d            bics    r5, r3
    3bd4:       b2ed            uxtb    r5, r5
    3bd6:       9301            str     r3, [sp, #4]
    3bd8:       b2e1            uxtb    r1, r4
    3bda:       2d00            cmp     r5,#0
    3bdc:       d01d            beq.n  0x3c1a
    3bde:       002b            movs    r3, r5
    3be0:       4123            asrs    r3, r4
    3be2:       9a01            ldr     r2, [sp, #4]
    3be4:       4213            tst     r3, r2
    3be6:       d015            beq.n  0x3c14
    3be8:       0023            movs    r3, r4
    3bea:       6832            ldr     r2, [r6, #0]
    3bec:       3308            adds    r3, #8
    3bee:       015b            lsls    r3, r3, #5
    3bf0:       18d3            adds    r3, r2, r3
    3bf2:       79da            ldrb    r2, [r3, #7]
    3bf4:       07d2            lsls    r2, r2, #31
    3bf6:       d402            bmi.n  0x3bfe
    3bf8:       79db            ldrb    r3, [r3, #7]
    3bfa:       079b            lsls    r3, r3, #30
    3bfc:       d507            bpl.n  0x3c0e
    3bfe:       4b13            ldr     r3, [pc, #76]    ; (0x3c4c)
    3c00:       00a2            lsls    r2, r4, #2
    3c02:       58d0            ldr     r0, [r2, r3]
    3c04:       2800            cmp     r0,#0
    3c06:       d010            beq.n  0x3c2a
    3c08:       6803            ldr     r3, [r0, #0]
    3c0a:       681b            ldr     r3, [r3, #0]
    3c0c:       4798            blx     r3
    3c0e:       9b01            ldr     r3, [sp, #4]
    3c10:       40a3            lsls    r3, r4
    3c12:       439d            bics    r5, r3
    3c14:       3401            adds    r4, #1
    3c16:       2c09            cmp     r4,#9
    3c18:       d1de            bne.n  0x3bd8
    3c1a:       bdf7            pop    {r0, r1, r2, r4, r5, r6, r7, pc}
    3c1c:       f7ff fb72       bl     0x3304
    3c20:       e7c2            b.n    0x3ba8
    3c22:       2120            movs    r1,#32
    3c24:       4a0a            ldr     r2, [pc, #40]    ; (0x3c50)
    3c26:       7191            strb    r1, [r2, #6]
    3c28:       e7c7            b.n    0x3bba
    3c2a:       0038            movs    r0, r7
    3c2c:       f7ff fa94       bl     0x3158
    3c30:       e7ed            b.n    0x3c0e
    3c32:       46c0            nop               ; (mov r8, r8)
    3c34:       0901            lsrs    r1, r0, #4
    3c36:       2000            movs    r0,#0
    3c38:       090c            lsrs    r4, r1, #4
    3c3a:       2000            movs    r0,#0
    3c3c:       0904            lsrs    r4, r0, #4
    3c3e:       2000            movs    r0,#0
    3c40:       0475            lsls    r5, r6, #17
    3c42:       2000            movs    r0,#0
    3c44:       0474            lsls    r4, r6, #17
    3c46:       2000            movs    r0,#0
    3c48:       0640            lsls    r0, r0, #25
    3c4a:       2000            movs    r0,#0
    3c4c:       0458            lsls    r0, r3, #17
    3c4e:       2000            movs    r0,#0
    3c50:       50ff            str     r7, [r7, r3]
    3c52:       4100            asrs    r0, r0
    3c54:       b510            push   {r4,lr}
    3c56:       4802            ldr     r0, [pc, #8]    ; (0x3c60)
    3c58:       f7ff ff54       bl     0x3b04
    3c5c:       bd10            pop    {r4, pc}
    3c5e:       46c0            nop               ; (mov r8, r8)
    3c60:       0454            lsls    r4, r2, #17
    3c62:       2000            movs    r0,#0
    3c64:       4b01            ldr     r3, [pc, #4]    ; (0x3c6c)
    3c66:       4a02            ldr     r2, [pc, #8]    ; (0x3c70)
    3c68:       601a            str     r2, [r3, #0]
    3c6a:       4770            bx      lr
    3c6c:       090c            lsrs    r4, r1, #4
    3c6e:       2000            movs    r0,#0
    3c70:       5000            str     r0, [r0, r0]
    3c72:       4100            asrs    r0, r0
    3c74:       2001            movs    r0,#1
    3c76:       4770            bx      lr
    3c78:       b510            push   {r4,lr}
    3c7a:       6803            ldr     r3, [r0, #0]
    3c7c:       4a01            ldr     r2, [pc, #4]    ; (0x3c84)
    3c7e:       6a1b            ldr     r3, [r3, #32]
    3c80:       4798            blx     r3
    3c82:       bd10            pop    {r4, pc}
    3c84:       0413            lsls    r3, r2, #16
    3c86:       0000            movs    r0, r0
    3c88:       0003            movs    r3, r0
    3c8a:       33fc            adds    r3, #252     ; 0xfc
    3c8c:       6fd9            ldr     r1, [r3, #124]    ; 0x7c
    3c8e:       6f9a            ldr     r2, [r3, #120]    ; 0x78
    3c90:       4291            cmp     r1, r2
    3c92:       d003            beq.n  0x3c9c
    3c94:       6fdb            ldr     r3, [r3, #124]    ; 0x7c
    3c96:       18c0            adds    r0, r0, r3
    3c98:       7d00            ldrb    r0, [r0, #20]
    3c9a:       4770            bx      lr
    3c9c:       2001            movs    r0,#1
    3c9e:       4240            negs    r0, r0
    3ca0:       e7fb            b.n    0x3c9a
    3ca2:       b510            push   {r4,lr}
    3ca4:       0004            movs    r4, r0
    3ca6:       6900            ldr     r0, [r0, #16]
    3ca8:       f7fe fe84       bl     0x29b4
    3cac:       0022            movs    r2, r4
    3cae:       2300            movs    r3,#0
    3cb0:       32fc            adds    r2, #252     ; 0xfc
    3cb2:       6793            str     r3, [r2, #120]    ; 0x78
    3cb4:       67d3            str     r3, [r2, #124]    ; 0x7c
    3cb6:       229e            movs    r2,#158    ; 0x9e
    3cb8:       0092            lsls    r2, r2, #2
    3cba:       18a4            adds    r4, r4, r2
    3cbc:       6663            str     r3, [r4, #100]    ; 0x64
    3cbe:       66a3            str     r3, [r4, #104]    ; 0x68
    3cc0:       bd10            pop    {r4, pc}
    3cc2:       23f0            movs    r3,#240    ; 0xf0
    3cc4:       011b            lsls    r3, r3, #4
    3cc6:       4019            ands    r1, r3
    3cc8:       2380            movs    r3,#128    ; 0x80
    3cca:       2006            movs    r0,#6
    3ccc:       009b            lsls    r3, r3, #2
    3cce:       4299            cmp     r1, r3
    3cd0:       d00a            beq.n  0x3ce8
    3cd2:       3301            adds    r3, #1
    3cd4:       33ff            adds    r3, #255     ; 0xff
    3cd6:       3001            adds    r0, #1
    3cd8:       4299            cmp     r1, r3
    3cda:       d005            beq.n  0x3ce8
    3cdc:       2380            movs    r3,#128    ; 0x80
    3cde:       2000            movs    r0,#0
    3ce0:       005b            lsls    r3, r3, #1
    3ce2:       4299            cmp     r1, r3
    3ce4:       d100            bne.n  0x3ce8
    3ce6:       3005            adds    r0, #5
    3ce8:       4770            bx      lr
    3cea:       200f            movs    r0,#15
    3cec:       4001            ands    r1, r0
    3cee:       2000            movs    r0,#0
    3cf0:       2901            cmp     r1,#1
    3cf2:       d003            beq.n  0x3cfc
    3cf4:       3902            subs    r1, #2
    3cf6:       1e48            subs    r0, r1, #1
    3cf8:       4181            sbcs    r1, r0
    3cfa:       1c48            adds    r0, r1, #1
    3cfc:       4770            bx      lr
    3cfe:       0000            movs    r0, r0
    3d00:       23b9            movs    r3,#185    ; 0xb9
    3d02:       b5f0            push   {r4, r5, r6, r7,lr}
    3d04:       2718            movs    r7,#24
    3d06:       b085            sub     sp, #20
    3d08:       9102            str     r1, [sp, #8]
    3d0a:       009b            lsls    r3, r3, #2
    3d0c:       0004            movs    r4, r0
    3d0e:       5cc0            ldrb    r0, [r0, r3]
    3d10:       003b            movs    r3, r7
    3d12:       2108            movs    r1,#8
    3d14:       4343            muls    r3, r0
    3d16:       4e32            ldr     r6, [pc, #200]    ; (0x3de0)
    3d18:       0015            movs    r5, r2
    3d1a:       18f3            adds    r3, r6, r3
    3d1c:       5659            ldrsb   r1, [r3, r1]
    3d1e:       f7fe fd2d       bl     0x277c
    3d22:       4b30            ldr     r3, [pc, #192]    ; (0x3de4)
    3d24:       2108            movs    r1,#8
    3d26:       5ce0            ldrb    r0, [r4, r3]
    3d28:       003b            movs    r3, r7
    3d2a:       4343            muls    r3, r0
    3d2c:       18f3            adds    r3, r6, r3
    3d2e:       5659            ldrsb   r1, [r3, r1]
    3d30:       f7fe fd24       bl     0x277c
    3d34:       4b2c            ldr     r3, [pc, #176]    ; (0x3de8)
    3d36:       5ce2            ldrb    r2, [r4, r3]
    3d38:       9303            str     r3, [sp, #12]
    3d3a:       2a02            cmp     r2,#2
    3d3c:       d109            bne.n  0x3d52
    3d3e:       3311            adds    r3, #17
    3d40:       5ce0            ldrb    r0, [r4, r3]
    3d42:       28ff            cmp     r0,#255     ; 0xff
    3d44:       d005            beq.n  0x3d52
    3d46:       2108            movs    r1,#8
    3d48:       4347            muls    r7, r0
    3d4a:       19f7            adds    r7, r6, r7
    3d4c:       5679            ldrsb   r1, [r7, r1]
    3d4e:       f7fe fd15       bl     0x277c
    3d52:       27ba            movs    r7,#186    ; 0xba
    3d54:       00bf            lsls    r7, r7, #2
    3d56:       5de0            ldrb    r0, [r4, r7]
    3d58:       28ff            cmp     r0,#255     ; 0xff
    3d5a:       d019            beq.n  0x3d90
    3d5c:       2101            movs    r1,#1
    3d5e:       f7fe fcb1       bl     0x26c4
    3d62:       2218            movs    r2,#24
    3d64:       5de3            ldrb    r3, [r4, r7]
    3d66:       4921            ldr     r1, [pc, #132]    ; (0x3dec)
    3d68:       435a            muls    r2, r3
    3d6a:       56b3            ldrsb   r3, [r6, r2]
    3d6c:       18b6            adds    r6, r6, r2
    3d6e:       01db            lsls    r3, r3, #7
    3d70:       1858            adds    r0, r3, r1
    3d72:       21bb            movs    r1,#187    ; 0xbb
    3d74:       0089            lsls    r1, r1, #2
    3d76:       5060            str     r0, [r4, r1]
    3d78:       491d            ldr     r1, [pc, #116]    ; (0x3df0)
    3d7a:       2201            movs    r2,#1
    3d7c:       185b            adds    r3, r3, r1
    3d7e:       21bc            movs    r1,#188    ; 0xbc
    3d80:       0089            lsls    r1, r1, #2
    3d82:       5063            str     r3, [r4, r1]
    3d84:       6871            ldr     r1, [r6, #4]
    3d86:       408a            lsls    r2, r1
    3d88:       21bd            movs    r1,#189    ; 0xbd
    3d8a:       0089            lsls    r1, r1, #2
    3d8c:       5062            str     r2, [r4, r1]
    3d8e:       601a            str     r2, [r3, #0]
    3d90:       2201            movs    r2,#1
    3d92:       9b02            ldr     r3, [sp, #8]
    3d94:       0011            movs    r1, r2
    3d96:       6920            ldr     r0, [r4, #16]
    3d98:       f7fe feda       bl     0x2b50
    3d9c:       0029            movs    r1, r5
    3d9e:       0020            movs    r0, r4
    3da0:       f7ff ff8f       bl     0x3cc2
    3da4:       0029            movs    r1, r5
    3da6:       0006            movs    r6, r0
    3da8:       0020            movs    r0, r4
    3daa:       f7ff ff9e       bl     0x3cea
    3dae:       22f0            movs    r2,#240    ; 0xf0
    3db0:       4015            ands    r5, r2
    3db2:       3d30            subs    r5, #48     ; 0x30
    3db4:       426a            negs    r2, r5
    3db6:       4155            adcs    r5, r2
    3db8:       0003            movs    r3, r0
    3dba:       0031            movs    r1, r6
    3dbc:       6920            ldr     r0, [r4, #16]
    3dbe:       2201            movs    r2,#1
    3dc0:       9500            str     r5, [sp, #0]
    3dc2:       f7fe fdc7       bl     0x2954
    3dc6:       4b0b            ldr     r3, [pc, #44]    ; (0x3df4)
    3dc8:       6920            ldr     r0, [r4, #16]
    3dca:       5ce2            ldrb    r2, [r4, r3]
    3dcc:       9b03            ldr     r3, [sp, #12]
    3dce:       5ce1            ldrb    r1, [r4, r3]
    3dd0:       f7fe fddd       bl     0x298e
    3dd4:       6920            ldr     r0, [r4, #16]
    3dd6:       f7fe fdfa       bl     0x29ce
    3dda:       b005            add     sp, #20
    3ddc:       bdf0            pop    {r4, r5, r6, r7, pc}
    3dde:       46c0            nop               ; (mov r8, r8)
    3de0:       49e8            ldr     r1, [pc, #928]    ; (0x4184)
    3de2:       0000            movs    r0, r0
    3de4:       02e5            lsls    r5, r4, #11
    3de6:       0000            movs    r0, r0
    3de8:       02e7            lsls    r7, r4, #11
    3dea:       0000            movs    r0, r0
    3dec:       4418            add     r0, r3
    3dee:       4100            asrs    r0, r0
    3df0:       4414            add     r4, r2
    3df2:       4100            asrs    r0, r0
    3df4:       02e6            lsls    r6, r4, #11
    3df6:       0000            movs    r0, r0
    3df8:       22af            movs    r2,#175    ; 0xaf
    3dfa:       b510            push   {r4,lr}
    3dfc:       0004            movs    r4, r0
    3dfe:       2100            movs    r1,#0
    3e00:       0052            lsls    r2, r2, #1
    3e02:       f000 fc6d       bl     0x46e0
    3e06:       0023            movs    r3, r4
    3e08:       2200            movs    r2,#0
    3e0a:       33fc            adds    r3, #252     ; 0xfc
    3e0c:       0020            movs    r0, r4
    3e0e:       665a            str     r2, [r3, #100]    ; 0x64
    3e10:       669a            str     r2, [r3, #104]    ; 0x68
    3e12:       bd10            pop    {r4, pc}
    3e14:       b5f7            push   {r0, r1, r2, r4, r5, r6, r7,lr}
    3e16:       001d            movs    r5, r3
    3e18:       ab08            add     r3, sp, #32
    3e1a:       781b            ldrb    r3, [r3, #0]
    3e1c:       0004            movs    r4, r0
    3e1e:       9300            str     r3, [sp, #0]
    3e20:       ab09            add     r3, sp, #36     ; 0x24
    3e22:       781b            ldrb    r3, [r3, #0]
    3e24:       0016            movs    r6, r2
    3e26:       9301            str     r3, [sp, #4]
    3e28:       2300            movs    r3,#0
    3e2a:       6043            str     r3, [r0, #4]
    3e2c:       23fa            movs    r3,#250    ; 0xfa
    3e2e:       009b            lsls    r3, r3, #2
    3e30:       6083            str     r3, [r0, #8]
    3e32:       4b10            ldr     r3, [pc, #64]    ; (0x3e74)
    3e34:       000f            movs    r7, r1
    3e36:       3308            adds    r3, #8
    3e38:       6003            str     r3, [r0, #0]
    3e3a:       3014            adds    r0, #20
    3e3c:       f7ff ffdc       bl     0x3df8
    3e40:       0020            movs    r0, r4
    3e42:       307d            adds    r0, #125     ; 0x7d
    3e44:       30ff            adds    r0, #255     ; 0xff
    3e46:       f7ff ffd7       bl     0x3df8
    3e4a:       23b9            movs    r3,#185    ; 0xb9
    3e4c:       009b            lsls    r3, r3, #2
    3e4e:       6127            str     r7, [r4, #16]
    3e50:       54e6            strb    r6, [r4, r3]
    3e52:       4b09            ldr     r3, [pc, #36]    ; (0x3e78)
    3e54:       9a00            ldr     r2, [sp, #0]
    3e56:       54e5            strb    r5, [r4, r3]
    3e58:       4b08            ldr     r3, [pc, #32]    ; (0x3e7c)
    3e5a:       0020            movs    r0, r4
    3e5c:       54e2            strb    r2, [r4, r3]
    3e5e:       9a01            ldr     r2, [sp, #4]
    3e60:       4b07            ldr     r3, [pc, #28]    ; (0x3e80)
    3e62:       54e2            strb    r2, [r4, r3]
    3e64:       22ba            movs    r2,#186    ; 0xba
    3e66:       3be9            subs    r3, #233     ; 0xe9
    3e68:       3bff            subs    r3, #255     ; 0xff
    3e6a:       0092            lsls    r2, r2, #2
    3e6c:       54a3            strb    r3, [r4, r2]
    3e6e:       3210            adds    r2, #16
    3e70:       54a3            strb    r3, [r4, r2]
    3e72:       bdfe            pop    {r1, r2, r3, r4, r5, r6, r7, pc}
    3e74:       4e9c            ldr     r6, [pc, #624]    ; (0x40e8)
    3e76:       0000            movs    r0, r0
    3e78:       02e5            lsls    r5, r4, #11
    3e7a:       0000            movs    r0, r0
    3e7c:       02e6            lsls    r6, r4, #11
    3e7e:       0000            movs    r0, r0
    3e80:       02e7            lsls    r7, r4, #11
    3e82:       0000            movs    r0, r0
    3e84:       0003            movs    r3, r0
    3e86:       33fc            adds    r3, #252     ; 0xfc
    3e88:       6e58            ldr     r0, [r3, #100]    ; 0x64
    3e8a:       6e9b            ldr     r3, [r3, #104]    ; 0x68
    3e8c:       1ac0            subs    r0, r0, r3
    3e8e:       d501            bpl.n  0x3e94
    3e90:       305f            adds    r0, #95     ; 0x5f
    3e92:       30ff            adds    r0, #255     ; 0xff
    3e94:       4770            bx      lr
    3e96:       b510            push   {r4,lr}
    3e98:       0004            movs    r4, r0
    3e9a:       0020            movs    r0, r4
    3e9c:       307d            adds    r0, #125     ; 0x7d
    3e9e:       30ff            adds    r0, #255     ; 0xff
    3ea0:       f7ff fff0       bl     0x3e84
    3ea4:       2800            cmp     r0,#0
    3ea6:       d1f8            bne.n  0x3e9a
    3ea8:       6920            ldr     r0, [r4, #16]
    3eaa:       f7fe fd9a       bl     0x29e2
    3eae:       bd10            pop    {r4, pc}
    3eb0:       b510            push   {r4,lr}
    3eb2:       3014            adds    r0, #20
    3eb4:       f7ff ffe6       bl     0x3e84
    3eb8:       bd10            pop    {r4, pc}
    3eba:       0003            movs    r3, r0
    3ebc:       33fc            adds    r3, #252     ; 0xfc
    3ebe:       6e59            ldr     r1, [r3, #100]    ; 0x64
    3ec0:       6e9a            ldr     r2, [r3, #104]    ; 0x68
    3ec2:       4291            cmp     r1, r2
    3ec4:       db05            blt.n  0x3ed2
    3ec6:       6e5a            ldr     r2, [r3, #100]    ; 0x64
    3ec8:       6e98            ldr     r0, [r3, #104]    ; 0x68
    3eca:       1a80            subs    r0, r0, r2
    3ecc:       305e            adds    r0, #94     ; 0x5e
    3ece:       30ff            adds    r0, #255     ; 0xff
    3ed0:       4770            bx      lr
    3ed2:       6e98            ldr     r0, [r3, #104]    ; 0x68
    3ed4:       6e5b            ldr     r3, [r3, #100]    ; 0x64
    3ed6:       1ac0            subs    r0, r0, r3
    3ed8:       3801            subs    r0, #1
    3eda:       e7f9            b.n    0x3ed0
    3edc:       b510            push   {r4,lr}
    3ede:       307d            adds    r0, #125     ; 0x7d
    3ee0:       30ff            adds    r0, #255     ; 0xff
    3ee2:       f7ff ffea       bl     0x3eba
    3ee6:       bd10            pop    {r4, pc}
    3ee8:       b570            push   {r4, r5, r6,lr}
    3eea:       0004            movs    r4, r0
    3eec:       6900            ldr     r0, [r0, #16]
    3eee:       f7fe fd94       bl     0x2a1a
    3ef2:       2800            cmp     r0,#0
    3ef4:       d005            beq.n  0x3f02
    3ef6:       6920            ldr     r0, [r4, #16]
    3ef8:       f7fe fd9f       bl     0x2a3a
    3efc:       6920            ldr     r0, [r4, #16]
    3efe:       f7fe fd91       bl     0x2a24
    3f02:       6920            ldr     r0, [r4, #16]
    3f04:       f7fe fd79       bl     0x29fa
    3f08:       2800            cmp     r0,#0
    3f0a:       d024            beq.n  0x3f56
    3f0c:       0025            movs    r5, r4
    3f0e:       6920            ldr     r0, [r4, #16]
    3f10:       f7fe fd93       bl     0x2a3a
    3f14:       21af            movs    r1,#175    ; 0xaf
    3f16:       35fc            adds    r5, #252     ; 0xfc
    3f18:       0006            movs    r6, r0
    3f1a:       6fa8            ldr     r0, [r5, #120]    ; 0x78
    3f1c:       0049            lsls    r1, r1, #1
    3f1e:       3001            adds    r0, #1
    3f20:       f000 fb84       bl     0x462c
    3f24:       6feb            ldr     r3, [r5, #124]    ; 0x7c
    3f26:       4299            cmp     r1, r3
    3f28:       d003            beq.n  0x3f32
    3f2a:       6fab            ldr     r3, [r5, #120]    ; 0x78
    3f2c:       18e3            adds    r3, r4, r3
    3f2e:       751e            strb    r6, [r3, #20]
    3f30:       67a9            str     r1, [r5, #120]    ; 0x78
    3f32:       23ba            movs    r3,#186    ; 0xba
    3f34:       009b            lsls    r3, r3, #2
    3f36:       5ce3            ldrb    r3, [r4, r3]
    3f38:       2bff            cmp     r3,#255     ; 0xff
    3f3a:       d00c            beq.n  0x3f56
    3f3c:       0020            movs    r0, r4
    3f3e:       3014            adds    r0, #20
    3f40:       f7ff ffbb       bl     0x3eba
    3f44:       2809            cmp     r0,#9
    3f46:       dc06            bgt.n  0x3f56
    3f48:       23bb            movs    r3,#187    ; 0xbb
    3f4a:       22bd            movs    r2,#189    ; 0xbd
    3f4c:       009b            lsls    r3, r3, #2
    3f4e:       0092            lsls    r2, r2, #2
    3f50:       58e3            ldr     r3, [r4, r3]
    3f52:       58a2            ldr     r2, [r4, r2]
    3f54:       601a            str     r2, [r3, #0]
    3f56:       6920            ldr     r0, [r4, #16]
    3f58:       f7fe fd6a       bl     0x2a30
    3f5c:       2800            cmp     r0,#0
    3f5e:       d01d            beq.n  0x3f9c
    3f60:       0020            movs    r0, r4
    3f62:       307d            adds    r0, #125     ; 0x7d
    3f64:       30ff            adds    r0, #255     ; 0xff
    3f66:       f7ff ff8d       bl     0x3e84
    3f6a:       2800            cmp     r0,#0
    3f6c:       d025            beq.n  0x3fba
    3f6e:       239e            movs    r3,#158    ; 0x9e
    3f70:       009b            lsls    r3, r3, #2
    3f72:       18e6            adds    r6, r4, r3
    3f74:       6eb2            ldr     r2, [r6, #104]    ; 0x68
    3f76:       6e73            ldr     r3, [r6, #100]    ; 0x64
    3f78:       429a            cmp     r2, r3
    3f7a:       d01b            beq.n  0x3fb4
    3f7c:       22be            movs    r2,#190    ; 0xbe
    3f7e:       21af            movs    r1,#175    ; 0xaf
    3f80:       6eb3            ldr     r3, [r6, #104]    ; 0x68
    3f82:       6eb0            ldr     r0, [r6, #104]    ; 0x68
    3f84:       18e3            adds    r3, r4, r3
    3f86:       0052            lsls    r2, r2, #1
    3f88:       3001            adds    r0, #1
    3f8a:       0049            lsls    r1, r1, #1
    3f8c:       5c9d            ldrb    r5, [r3, r2]
    3f8e:       f000 fb4d       bl     0x462c
    3f92:       66b1            str     r1, [r6, #104]    ; 0x68
    3f94:       6920            ldr     r0, [r4, #16]
    3f96:       b2e9            uxtb    r1, r5
    3f98:       f7fe fd53       bl     0x2a42
    3f9c:       6920            ldr     r0, [r4, #16]
    3f9e:       f7fe fd31       bl     0x2a04
    3fa2:       2800            cmp     r0,#0
    3fa4:       d005            beq.n  0x3fb2
    3fa6:       6920            ldr     r0, [r4, #16]
    3fa8:       f7fe fd30       bl     0x2a0c
    3fac:       6920            ldr     r0, [r4, #16]
    3fae:       f7fe fd20       bl     0x29f2
    3fb2:       bd70            pop    {r4, r5, r6, pc}
    3fb4:       2501            movs    r5,#1
    3fb6:       426d            negs    r5, r5
    3fb8:       e7ec            b.n    0x3f94
    3fba:       6920            ldr     r0, [r4, #16]
    3fbc:       f7fe fd4d       bl     0x2a5a
    3fc0:       e7ec            b.n    0x3f9c
    3fc2:       0000            movs    r0, r0
    3fc4:       b5f7            push   {r0, r1, r2, r4, r5, r6, r7,lr}
    3fc6:       0004            movs    r4, r0
    3fc8:       6900            ldr     r0, [r0, #16]
    3fca:       000e            movs    r6, r1
    3fcc:       f7fe fd30       bl     0x2a30
    3fd0:       2800            cmp     r0,#0
    3fd2:       d147            bne.n  0x4064
    3fd4:       27af            movs    r7,#175    ; 0xaf
    3fd6:       007f            lsls    r7, r7, #1
    3fd8:       239e            movs    r3,#158    ; 0x9e
    3fda:       009b            lsls    r3, r3, #2
    3fdc:       18e5            adds    r5, r4, r3
    3fde:       6e68            ldr     r0, [r5, #100]    ; 0x64
    3fe0:       6eab            ldr     r3, [r5, #104]    ; 0x68
    3fe2:       0039            movs    r1, r7
    3fe4:       3001            adds    r0, #1
    3fe6:       9301            str     r3, [sp, #4]
    3fe8:       f000 fb20       bl     0x462c
    3fec:       9b01            ldr     r3, [sp, #4]
    3fee:       4299            cmp     r1, r3
    3ff0:       d124            bne.n  0x403c
    3ff2:       f3ef 8310       mrs     r3, PRIMASK
    3ff6:       07db            lsls    r3, r3, #31
    3ff8:       d40e            bmi.n  0x4018
    3ffa:       4b20            ldr     r3, [pc, #128]    ; (0x407c)
    3ffc:       685b            ldr     r3, [r3, #4]
    3ffe:       05db            lsls    r3, r3, #23
    4000:       0dda            lsrs    r2, r3, #23
    4002:       2b00            cmp     r3,#0
    4004:       d0e8            beq.n  0x3fd8
    4006:       3a10            subs    r2, #16
    4008:       b253            sxtb    r3, r2
    400a:       0612            lsls    r2, r2, #24
    400c:       d40d            bmi.n  0x402a
    400e:       089b            lsrs    r3, r3, #2
    4010:       4a1b            ldr     r2, [pc, #108]    ; (0x4080)
    4012:       33c0            adds    r3, #192     ; 0xc0
    4014:       009b            lsls    r3, r3, #2
    4016:       589b            ldr     r3, [r3, r2]
    4018:       6920            ldr     r0, [r4, #16]
    401a:       f7fe fd09       bl     0x2a30
    401e:       2800            cmp     r0,#0
    4020:       d0da            beq.n  0x3fd8
    4022:       0020            movs    r0, r4
    4024:       f7ff ff60       bl     0x3ee8
    4028:       e7d6            b.n    0x3fd8
    402a:       220f            movs    r2,#15
    402c:       4013            ands    r3, r2
    402e:       3b08            subs    r3, #8
    4030:       4a14            ldr     r2, [pc, #80]    ; (0x4084)
    4032:       089b            lsrs    r3, r3, #2
    4034:       009b            lsls    r3, r3, #2
    4036:       189b            adds    r3, r3, r2
    4038:       681b            ldr     r3, [r3, #0]
    403a:       e7ed            b.n    0x4018
    403c:       21af            movs    r1,#175    ; 0xaf
    403e:       6e68            ldr     r0, [r5, #100]    ; 0x64
    4040:       0049            lsls    r1, r1, #1
    4042:       3001            adds    r0, #1
    4044:       f000 faf2       bl     0x462c
    4048:       6eab            ldr     r3, [r5, #104]    ; 0x68
    404a:       4299            cmp     r1, r3
    404c:       d005            beq.n  0x405a
    404e:       22be            movs    r2,#190    ; 0xbe
    4050:       6e6b            ldr     r3, [r5, #100]    ; 0x64
    4052:       0052            lsls    r2, r2, #1
    4054:       18e3            adds    r3, r4, r3
    4056:       549e            strb    r6, [r3, r2]
    4058:       6669            str     r1, [r5, #100]    ; 0x64
    405a:       6920            ldr     r0, [r4, #16]
    405c:       f7fe fcf9       bl     0x2a52
    4060:       2001            movs    r0,#1
    4062:       bdfe            pop    {r1, r2, r3, r4, r5, r6, r7, pc}
    4064:       0020            movs    r0, r4
    4066:       307d            adds    r0, #125     ; 0x7d
    4068:       30ff            adds    r0, #255     ; 0xff
    406a:       f7ff ff0b       bl     0x3e84
    406e:       2800            cmp     r0,#0
    4070:       d1b0            bne.n  0x3fd4
    4072:       0031            movs    r1, r6
    4074:       6920            ldr     r0, [r4, #16]
    4076:       f7fe fce4       bl     0x2a42
    407a:       e7f1            b.n    0x4060
    407c:       ed00 e000       nop    
    4080:       e100            b.n    0x4284
    4082:       e000            b.n    0x4086
    4084:       ed1c e000       nop    
    4088:       b570            push   {r4, r5, r6,lr}
    408a:       0005            movs    r5, r0
    408c:       35fc            adds    r5, #252     ; 0xfc
    408e:       6fea            ldr     r2, [r5, #124]    ; 0x7c
    4090:       6fab            ldr     r3, [r5, #120]    ; 0x78
    4092:       0004            movs    r4, r0
    4094:       429a            cmp     r2, r3
    4096:       d01d            beq.n  0x40d4
    4098:       21af            movs    r1,#175    ; 0xaf
    409a:       6feb            ldr     r3, [r5, #124]    ; 0x7c
    409c:       0049            lsls    r1, r1, #1
    409e:       18c3            adds    r3, r0, r3
    40a0:       6fe8            ldr     r0, [r5, #124]    ; 0x7c
    40a2:       7d1e            ldrb    r6, [r3, #20]
    40a4:       3001            adds    r0, #1
    40a6:       f000 fac1       bl     0x462c
    40aa:       67e9            str     r1, [r5, #124]    ; 0x7c
    40ac:       23ba            movs    r3,#186    ; 0xba
    40ae:       009b            lsls    r3, r3, #2
    40b0:       5ce3            ldrb    r3, [r4, r3]
    40b2:       2bff            cmp     r3,#255     ; 0xff
    40b4:       d00c            beq.n  0x40d0
    40b6:       0020            movs    r0, r4
    40b8:       3014            adds    r0, #20
    40ba:       f7ff fefe       bl     0x3eba
    40be:       280a            cmp     r0,#10
    40c0:       dd06            ble.n  0x40d0
    40c2:       23bc            movs    r3,#188    ; 0xbc
    40c4:       22bd            movs    r2,#189    ; 0xbd
    40c6:       009b            lsls    r3, r3, #2
    40c8:       0092            lsls    r2, r2, #2
    40ca:       58e3            ldr     r3, [r4, r3]
    40cc:       58a2            ldr     r2, [r4, r2]
    40ce:       601a            str     r2, [r3, #0]
    40d0:       0030            movs    r0, r6
    40d2:       bd70            pop    {r4, r5, r6, pc}
    40d4:       2601            movs    r6,#1
    40d6:       4276            negs    r6, r6
    40d8:       e7e8            b.n    0x40ac
    40da:       b510            push   {r4,lr}
    40dc:       0004            movs    r4, r0
    40de:       6800            ldr     r0, [r0, #0]
    40e0:       f000 fad8       bl     0x4694
    40e4:       0020            movs    r0, r4
    40e6:       bd10            pop    {r4, pc}
    40e8:       b510            push   {r4,lr}
    40ea:       0004            movs    r4, r0
    40ec:       6800            ldr     r0, [r0, #0]
    40ee:       2800            cmp     r0,#0
    40f0:       d001            beq.n  0x40f6
    40f2:       f000 facf       bl     0x4694
    40f6:       2300            movs    r3,#0
    40f8:       6023            str     r3, [r4, #0]
    40fa:       60a3            str     r3, [r4, #8]
    40fc:       6063            str     r3, [r4, #4]
    40fe:       bd10            pop    {r4, pc}
    4100:       b570            push   {r4, r5, r6,lr}
    4102:       0004            movs    r4, r0
    4104:       000d            movs    r5, r1
    4106:       6800            ldr     r0, [r0, #0]
    4108:       3101            adds    r1, #1
    410a:       f000 fb99       bl     0x4840
    410e:       1e03            subs    r3, r0, #0
    4110:       d001            beq.n  0x4116
    4112:       2001            movs    r0,#1
    4114:       c428            stmia   r4!, {r3, r5}
    4116:       bd70            pop    {r4, r5, r6, pc}
    4118:       6803            ldr     r3, [r0, #0]
    411a:       b510            push   {r4,lr}
    411c:       0004            movs    r4, r0
    411e:       2b00            cmp     r3,#0
    4120:       d004            beq.n  0x412c
    4122:       6843            ldr     r3, [r0, #4]
    4124:       428b            cmp     r3, r1
    4126:       d301            bcc.n  0x412c
    4128:       2001            movs    r0,#1
    412a:       bd10            pop    {r4, pc}
    412c:       0020            movs    r0, r4
    412e:       f7ff ffe7       bl     0x4100
    4132:       2800            cmp     r0,#0
    4134:       d0f9            beq.n  0x412a
    4136:       68a3            ldr     r3, [r4, #8]
    4138:       2b00            cmp     r3,#0
    413a:       d1f5            bne.n  0x4128
    413c:       6822            ldr     r2, [r4, #0]
    413e:       7013            strb    r3, [r2, #0]
    4140:       e7f2            b.n    0x4128
    4142:       b570            push   {r4, r5, r6,lr}
    4144:       000e            movs    r6, r1
    4146:       0011            movs    r1, r2
    4148:       0004            movs    r4, r0
    414a:       0015            movs    r5, r2
    414c:       f7ff ffe4       bl     0x4118
    4150:       2800            cmp     r0,#0
    4152:       d104            bne.n  0x415e
    4154:       0020            movs    r0, r4
    4156:       f7ff ffc7       bl     0x40e8
    415a:       0020            movs    r0, r4
    415c:       bd70            pop    {r4, r5, r6, pc}
    415e:       0031            movs    r1, r6
    4160:       6820            ldr     r0, [r4, #0]
    4162:       60a5            str     r5, [r4, #8]
    4164:       f000 fb88       bl     0x4878
    4168:       e7f7            b.n    0x415a
    416a:       2300            movs    r3,#0
    416c:       b570            push   {r4, r5, r6,lr}
    416e:       0004            movs    r4, r0
    4170:       000d            movs    r5, r1
    4172:       6003            str     r3, [r0, #0]
    4174:       6043            str     r3, [r0, #4]
    4176:       6083            str     r3, [r0, #8]
    4178:       4299            cmp     r1, r3
    417a:       d007            beq.n  0x418c
    417c:       0008            movs    r0, r1
    417e:       f000 fb83       bl     0x4888
    4182:       0029            movs    r1, r5
    4184:       0002            movs    r2, r0
    4186:       0020            movs    r0, r4
    4188:       f7ff ffdb       bl     0x4142
    418c:       0020            movs    r0, r4
    418e:       bd70            pop    {r4, r5, r6, pc}
    4190:       b510            push   {r4,lr}
    4192:       000b            movs    r3, r1
    4194:       0004            movs    r4, r0
    4196:       4288            cmp     r0, r1
    4198:       d005            beq.n  0x41a6
    419a:       6809            ldr     r1, [r1, #0]
    419c:       2900            cmp     r1,#0
    419e:       d004            beq.n  0x41aa
    41a0:       689a            ldr     r2, [r3, #8]
    41a2:       f7ff ffce       bl     0x4142
    41a6:       0020            movs    r0, r4
    41a8:       bd10            pop    {r4, pc}
    41aa:       f7ff ff9d       bl     0x40e8
    41ae:       e7fa            b.n    0x41a6
    41b0:       2300            movs    r3,#0
    41b2:       b510            push   {r4,lr}
    41b4:       0004            movs    r4, r0
    41b6:       6003            str     r3, [r0, #0]
    41b8:       6043            str     r3, [r0, #4]
    41ba:       6083            str     r3, [r0, #8]
    41bc:       f7ff ffe8       bl     0x4190
    41c0:       0020            movs    r0, r4
    41c2:       bd10            pop    {r4, pc}
    41c4:       b5f8            push   {r3, r4, r5, r6, r7,lr}
    41c6:       0004            movs    r4, r0
    41c8:       1e0e            subs    r6, r1, #0
    41ca:       d102            bne.n  0x41d2
    41cc:       2700            movs    r7,#0
    41ce:       0038            movs    r0, r7
    41d0:       bdf8            pop    {r3, r4, r5, r6, r7, pc}
    41d2:       2701            movs    r7,#1
    41d4:       2a00            cmp     r2,#0
    41d6:       d0fa            beq.n  0x41ce
    41d8:       6883            ldr     r3, [r0, #8]
    41da:       18d5            adds    r5, r2, r3
    41dc:       0029            movs    r1, r5
    41de:       f7ff ff9b       bl     0x4118
    41e2:       2800            cmp     r0,#0
    41e4:       d0f2            beq.n  0x41cc
    41e6:       6823            ldr     r3, [r4, #0]
    41e8:       68a2            ldr     r2, [r4, #8]
    41ea:       0031            movs    r1, r6
    41ec:       1898            adds    r0, r3, r2
    41ee:       f000 fb43       bl     0x4878
    41f2:       60a5            str     r5, [r4, #8]
    41f4:       e7eb            b.n    0x41ce
    41f6:       b510            push   {r4,lr}
    41f8:       688a            ldr     r2, [r1, #8]
    41fa:       6809            ldr     r1, [r1, #0]
    41fc:       0004            movs    r4, r0
    41fe:       f7ff ffe1       bl     0x41c4
    4202:       2800            cmp     r0,#0
    4204:       d102            bne.n  0x420c
    4206:       0020            movs    r0, r4
    4208:       f7ff ff6e       bl     0x40e8
    420c:       0020            movs    r0, r4
    420e:       bd10            pop    {r4, pc}
    4210:       b5f7            push   {r0, r1, r2, r4, r5, r6, r7,lr}
    4212:       0014            movs    r4, r2
    4214:       688a            ldr     r2, [r1, #8]
    4216:       000e            movs    r6, r1
    4218:       2a00            cmp     r2,#0
    421a:       d01b            beq.n  0x4254
    421c:       6883            ldr     r3, [r0, #8]
    421e:       2b00            cmp     r3,#0
    4220:       d018            beq.n  0x4254
    4222:       429a            cmp     r2, r3
    4224:       d816            bhi.n  0x4254
    4226:       42a3            cmp     r3, r4
    4228:       d800            bhi.n  0x422c
    422a:       1e5c            subs    r4, r3, #1
    422c:       6807            ldr     r7, [r0, #0]
    422e:       2501            movs    r5,#1
    4230:       0038            movs    r0, r7
    4232:       193b            adds    r3, r7, r4
    4234:       426d            negs    r5, r5
    4236:       9301            str     r3, [sp, #4]
    4238:       9b01            ldr     r3, [sp, #4]
    423a:       4298            cmp     r0, r3
    423c:       d80c            bhi.n  0x4258
    423e:       6831            ldr     r1, [r6, #0]
    4240:       f000 fb29       bl     0x4896
    4244:       2800            cmp     r0,#0
    4246:       d007            beq.n  0x4258
    4248:       1bc3            subs    r3, r0, r7
    424a:       42a3            cmp     r3, r4
    424c:       d800            bhi.n  0x4250
    424e:       001d            movs    r5, r3
    4250:       3001            adds    r0, #1
    4252:       e7f1            b.n    0x4238
    4254:       2501            movs    r5,#1
    4256:       426d            negs    r5, r5
    4258:       0028            movs    r0, r5
    425a:       bdfe            pop    {r1, r2, r3, r4, r5, r6, r7, pc}
    425c:       6803            ldr     r3, [r0, #0]
    425e:       2b00            cmp     r3,#0
    4260:       d007            beq.n  0x4272
    4262:       7818            ldrb    r0, [r3, #0]
    4264:       2800            cmp     r0,#0
    4266:       d004            beq.n  0x4272
    4268:       4288            cmp     r0, r1
    426a:       d100            bne.n  0x426e
    426c:       701a            strb    r2, [r3, #0]
    426e:       3301            adds    r3, #1
    4270:       e7f7            b.n    0x4262
    4272:       4770            bx      lr
    4274:       b5f0            push   {r4, r5, r6, r7,lr}
    4276:       6883            ldr     r3, [r0, #8]
    4278:       b087            sub     sp, #28
    427a:       0005            movs    r5, r0
    427c:       000f            movs    r7, r1
    427e:       0016            movs    r6, r2
    4280:       9304            str     r3, [sp, #16]
    4282:       2b00            cmp     r3,#0
    4284:       d056            beq.n  0x4334
    4286:       688b            ldr     r3, [r1, #8]
    4288:       9303            str     r3, [sp, #12]
    428a:       2b00            cmp     r3,#0
    428c:       d052            beq.n  0x4334
    428e:       6893            ldr     r3, [r2, #8]
    4290:       9a03            ldr     r2, [sp, #12]
    4292:       6804            ldr     r4, [r0, #0]
    4294:       1a9a            subs    r2, r3, r2
    4296:       9201            str     r2, [sp, #4]
    4298:       9a03            ldr     r2, [sp, #12]
    429a:       4293            cmp     r3, r2
    429c:       d10c            bne.n  0x42b8
    429e:       0020            movs    r0, r4
    42a0:       6839            ldr     r1, [r7, #0]
    42a2:       f000 faf8       bl     0x4896
    42a6:       1e04            subs    r4, r0, #0
    42a8:       d044            beq.n  0x4334
    42aa:       68b2            ldr     r2, [r6, #8]
    42ac:       6831            ldr     r1, [r6, #0]
    42ae:       f000 f9fb       bl     0x46a8
    42b2:       68b3            ldr     r3, [r6, #8]
    42b4:       18e4            adds    r4, r4, r3
    42b6:       e7f2            b.n    0x429e
    42b8:       9b01            ldr     r3, [sp, #4]
    42ba:       2b00            cmp     r3,#0
    42bc:       db10            blt.n  0x42e0
    42be:       680b            ldr     r3, [r1, #0]
    42c0:       9305            str     r3, [sp, #20]
    42c2:       9b04            ldr     r3, [sp, #16]
    42c4:       0020            movs    r0, r4
    42c6:       9905            ldr     r1, [sp, #20]
    42c8:       9302            str     r3, [sp, #8]
    42ca:       f000 fae4       bl     0x4896
    42ce:       2800            cmp     r0,#0
    42d0:       d032            beq.n  0x4338
    42d2:       9a01            ldr     r2, [sp, #4]
    42d4:       9b03            ldr     r3, [sp, #12]
    42d6:       4694            mov     ip, r2
    42d8:       18c4            adds    r4, r0, r3
    42da:       9b02            ldr     r3, [sp, #8]
    42dc:       4463            add     r3, ip
    42de:       e7f1            b.n    0x42c4
    42e0:       9402            str     r4, [sp, #8]
    42e2:       0020            movs    r0, r4
    42e4:       6839            ldr     r1, [r7, #0]
    42e6:       f000 fad6       bl     0x4896
    42ea:       9003            str     r0, [sp, #12]
    42ec:       2800            cmp     r0,#0
    42ee:       d01d            beq.n  0x432c
    42f0:       1b03            subs    r3, r0, r4
    42f2:       001a            movs    r2, r3
    42f4:       0021            movs    r1, r4
    42f6:       9802            ldr     r0, [sp, #8]
    42f8:       9304            str     r3, [sp, #16]
    42fa:       f000 f9d5       bl     0x46a8
    42fe:       9a04            ldr     r2, [sp, #16]
    4300:       9b02            ldr     r3, [sp, #8]
    4302:       4694            mov     ip, r2
    4304:       4463            add     r3, ip
    4306:       001c            movs    r4, r3
    4308:       0018            movs    r0, r3
    430a:       68b2            ldr     r2, [r6, #8]
    430c:       6831            ldr     r1, [r6, #0]
    430e:       f000 f9cb       bl     0x46a8
    4312:       68ba            ldr     r2, [r7, #8]
    4314:       68b3            ldr     r3, [r6, #8]
    4316:       4694            mov     ip, r2
    4318:       18e3            adds    r3, r4, r3
    431a:       9302            str     r3, [sp, #8]
    431c:       9b03            ldr     r3, [sp, #12]
    431e:       9a01            ldr     r2, [sp, #4]
    4320:       4463            add     r3, ip
    4322:       001c            movs    r4, r3
    4324:       68ab            ldr     r3, [r5, #8]
    4326:       189b            adds    r3, r3, r2
    4328:       60ab            str     r3, [r5, #8]
    432a:       e7da            b.n    0x42e2
    432c:       0021            movs    r1, r4
    432e:       9802            ldr     r0, [sp, #8]
    4330:       f000 faa2       bl     0x4878
    4334:       b007            add     sp, #28
    4336:       bdf0            pop    {r4, r5, r6, r7, pc}
    4338:       9b04            ldr     r3, [sp, #16]
    433a:       9a02            ldr     r2, [sp, #8]
    433c:       4293            cmp     r3, r2
    433e:       d0f9            beq.n  0x4334
    4340:       686b            ldr     r3, [r5, #4]
    4342:       4293            cmp     r3, r2
    4344:       d322            bcc.n  0x438c
    4346:       68ab            ldr     r3, [r5, #8]
    4348:       1e5a            subs    r2, r3, #1
    434a:       2a00            cmp     r2,#0
    434c:       dbf2            blt.n  0x4334
    434e:       0039            movs    r1, r7
    4350:       0028            movs    r0, r5
    4352:       f7ff ff5d       bl     0x4210
    4356:       1e04            subs    r4, r0, #0
    4358:       dbec            blt.n  0x4334
    435a:       68bb            ldr     r3, [r7, #8]
    435c:       18c2            adds    r2, r0, r3
    435e:       682b            ldr     r3, [r5, #0]
    4360:       1899            adds    r1, r3, r2
    4362:       68ab            ldr     r3, [r5, #8]
    4364:       1a9a            subs    r2, r3, r2
    4366:       9b01            ldr     r3, [sp, #4]
    4368:       18c8            adds    r0, r1, r3
    436a:       f000 f9a6       bl     0x46ba
    436e:       68aa            ldr     r2, [r5, #8]
    4370:       9b01            ldr     r3, [sp, #4]
    4372:       6829            ldr     r1, [r5, #0]
    4374:       189b            adds    r3, r3, r2
    4376:       2200            movs    r2,#0
    4378:       60ab            str     r3, [r5, #8]
    437a:       54ca            strb    r2, [r1, r3]
    437c:       682b            ldr     r3, [r5, #0]
    437e:       68b2            ldr     r2, [r6, #8]
    4380:       6831            ldr     r1, [r6, #0]
    4382:       1918            adds    r0, r3, r4
    4384:       f000 f990       bl     0x46a8
    4388:       1e62            subs    r2, r4, #1
    438a:       e7de            b.n    0x434a
    438c:       0028            movs    r0, r5
    438e:       9902            ldr     r1, [sp, #8]
    4390:       f7ff feb6       bl     0x4100
    4394:       2800            cmp     r0,#0
    4396:       d1d6            bne.n  0x4346
    4398:       e7cc            b.n    0x4334
    439a:       4770            bx      lr
    439c:       b510            push   {r4,lr}
    439e:       f7fe f8dd       bl     0x255c
    43a2:       f000 f949       bl     0x4638
    43a6:       f7ff fff8       bl     0x439a
    43aa:       2001            movs    r0,#1
    43ac:       f7fe f802       bl     0x23b4
    43b0:       4c09            ldr     r4, [pc, #36]    ; (0x43d8)
    43b2:       0020            movs    r0, r4
    43b4:       f7fe fef2       bl     0x319c
    43b8:       0020            movs    r0, r4
    43ba:       f7fe ff67       bl     0x328c
    43be:       f7fd fe9d       bl     0x20fc
    43c2:       f7fd feb3       bl     0x212c
    43c6:       f7fe f815       bl     0x23f4
    43ca:       4b04            ldr     r3, [pc, #16]    ; (0x43dc)
    43cc:       2b00            cmp     r3,#0
    43ce:       d0f8            beq.n  0x43c2
    43d0:       e000            b.n    0x43d4
    43d2:       bf00            nop    
    43d4:       e7f5            b.n    0x43c2
    43d6:       46c0            nop               ; (mov r8, r8)
    43d8:       0454            lsls    r4, r2, #17
    43da:       2000            movs    r0,#0
    43dc:       0000            movs    r0, r0
    43de:       0000            movs    r0, r0
    43e0:       b510            push   {r4,lr}
    43e2:       f000 f94d       bl     0x4680
    43e6:       bd10            pop    {r4, pc}
    43e8:       b510            push   {r4,lr}
    43ea:       f000 f953       bl     0x4694
    43ee:       bd10            pop    {r4, pc}
    43f0:       b570            push   {r4, r5, r6,lr}
    43f2:       000e            movs    r6, r1
    43f4:       2500            movs    r5,#0
    43f6:       6844            ldr     r4, [r0, #4]
    43f8:       2c00            cmp     r4,#0
    43fa:       d00b            beq.n  0x4414
    43fc:       6823            ldr     r3, [r4, #0]
    43fe:       0031            movs    r1, r6
    4400:       0020            movs    r0, r4
    4402:       685b            ldr     r3, [r3, #4]
    4404:       4798            blx     r3
    4406:       2800            cmp     r0,#0
    4408:       db02            blt.n  0x4410
    440a:       68e4            ldr     r4, [r4, #12]
    440c:       182d            adds    r5, r5, r0
    440e:       e7f3            b.n    0x43f8
    4410:       2501            movs    r5,#1
    4412:       426d            negs    r5, r5
    4414:       0028            movs    r0, r5
    4416:       bd70            pop    {r4, r5, r6, pc}
    4418:       b570            push   {r4, r5, r6,lr}
    441a:       000d            movs    r5, r1
    441c:       6844            ldr     r4, [r0, #4]
    441e:       2c00            cmp     r4,#0
    4420:       d008            beq.n  0x4434
    4422:       6823            ldr     r3, [r4, #0]
    4424:       0029            movs    r1, r5
    4426:       0020            movs    r0, r4
    4428:       689b            ldr     r3, [r3, #8]
    442a:       4798            blx     r3
    442c:       2800            cmp     r0,#0
    442e:       d102            bne.n  0x4436
    4430:       68e4            ldr     r4, [r4, #12]
    4432:       e7f4            b.n    0x441e
    4434:       0020            movs    r0, r4
    4436:       bd70            pop    {r4, r5, r6, pc}
    4438:       b570            push   {r4, r5, r6,lr}
    443a:       000d            movs    r5, r1
    443c:       6844            ldr     r4, [r0, #4]
    443e:       2c00            cmp     r4,#0
    4440:       d008            beq.n  0x4454
    4442:       6823            ldr     r3, [r4, #0]
    4444:       0029            movs    r1, r5
    4446:       0020            movs    r0, r4
    4448:       681b            ldr     r3, [r3, #0]
    444a:       4798            blx     r3
    444c:       2800            cmp     r0,#0
    444e:       d102            bne.n  0x4456
    4450:       68e4            ldr     r4, [r4, #12]
    4452:       e7f4            b.n    0x443e
    4454:       0020            movs    r0, r4
    4456:       bd70            pop    {r4, r5, r6, pc}
    4458:       4a06            ldr     r2, [pc, #24]    ; (0x4474)
    445a:       2301            movs    r3,#1
    445c:       6811            ldr     r1, [r2, #0]
    445e:       b510            push   {r4,lr}
    4460:       000c            movs    r4, r1
    4462:       4805            ldr     r0, [pc, #20]    ; (0x4478)
    4464:       401c            ands    r4, r3
    4466:       4219            tst     r1, r3
    4468:       d103            bne.n  0x4472
    446a:       4904            ldr     r1, [pc, #16]    ; (0x447c)
    446c:       6044            str     r4, [r0, #4]
    446e:       8001            strh    r1, [r0, #0]
    4470:       6013            str     r3, [r2, #0]
    4472:       bd10            pop    {r4, pc}
    4474:       0a10            lsrs    r0, r2, #8
    4476:       2000            movs    r0,#0
    4478:       0a14            lsrs    r4, r2, #8
    447a:       2000            movs    r0,#0
    447c:       0402            lsls    r2, r0, #16
    447e:       0000            movs    r0, r0
    4480:       b570            push   {r4, r5, r6,lr}
    4482:       0004            movs    r4, r0
    4484:       2301            movs    r3,#1
    4486:       cc20            ldmia   r4!, {r5}
    4488:       2100            movs    r1,#0
    448a:       782a            ldrb    r2, [r5, #0]
    448c:       0020            movs    r0, r4
    448e:       4313            orrs    r3, r2
    4490:       2280            movs    r2,#128    ; 0x80
    4492:       702b            strb    r3, [r5, #0]
    4494:       0052            lsls    r2, r2, #1
    4496:       f000 f923       bl     0x46e0
    449a:       78ab            ldrb    r3, [r5, #2]
    449c:       07db            lsls    r3, r3, #31
    449e:       d4fc            bmi.n  0x449a
    44a0:       78ab            ldrb    r3, [r5, #2]
    44a2:       079b            lsls    r3, r3, #30
    44a4:       d4f9            bmi.n  0x449a
    44a6:       626c            str     r4, [r5, #36]    ; 0x24
    44a8:       bd70            pop    {r4, r5, r6, pc}
    44aa:       0000            movs    r0, r0
    44ac:       221f            movs    r2,#31
    44ae:       4b14            ldr     r3, [pc, #80]    ; (0x4500)
    44b0:       b570            push   {r4, r5, r6,lr}
    44b2:       681b            ldr     r3, [r3, #0]
    44b4:       0b59            lsrs    r1, r3, #13
    44b6:       0c9c            lsrs    r4, r3, #18
    44b8:       019b            lsls    r3, r3, #6
    44ba:       4011            ands    r1, r2
    44bc:       0f5b            lsrs    r3, r3, #29
    44be:       4022            ands    r2, r4
    44c0:       291f            cmp     r1,#31
    44c2:       d100            bne.n  0x44c6
    44c4:       391a            subs    r1, #26
    44c6:       2a1f            cmp     r2,#31
    44c8:       d100            bne.n  0x44cc
    44ca:       3a02            subs    r2, #2
    44cc:       2b07            cmp     r3,#7
    44ce:       d100            bne.n  0x44d2
    44d0:       3b04            subs    r3, #4
    44d2:       251f            movs    r5,#31
    44d4:       6800            ldr     r0, [r0, #0]
    44d6:       018e            lsls    r6, r1, #6
    44d8:       8d04            ldrh    r4, [r0, #40]    ; 0x28
    44da:       490a            ldr     r1, [pc, #40]    ; (0x4504)
    44dc:       402a            ands    r2, r5
    44de:       4021            ands    r1, r4
    44e0:       4331            orrs    r1, r6
    44e2:       8501            strh    r1, [r0, #40]    ; 0x28
    44e4:       8d01            ldrh    r1, [r0, #40]    ; 0x28
    44e6:       0014            movs    r4, r2
    44e8:       000a            movs    r2, r1
    44ea:       43aa            bics    r2, r5
    44ec:       4322            orrs    r2, r4
    44ee:       8502            strh    r2, [r0, #40]    ; 0x28
    44f0:       8d02            ldrh    r2, [r0, #40]    ; 0x28
    44f2:       0319            lsls    r1, r3, #12
    44f4:       4b04            ldr     r3, [pc, #16]    ; (0x4508)
    44f6:       4013            ands    r3, r2
    44f8:       430b            orrs    r3, r1
    44fa:       8503            strh    r3, [r0, #40]    ; 0x28
    44fc:       bd70            pop    {r4, r5, r6, pc}
    44fe:       46c0            nop               ; (mov r8, r8)
    4500:       6024            str     r4, [r4, #0]
    4502:       0080            lsls    r0, r0, #2
    4504:       f83f ffff       nop    
    4508:       8fff            ldrh    r7, [r7, #62]    ; 0x3e
    450a:       ffff b402       nop    
    450e:       4671            mov     r1, lr
    4510:       0849            lsrs    r1, r1, #1
    4512:       0049            lsls    r1, r1, #1
    4514:       5c09            ldrb    r1, [r1, r0]
    4516:       0049            lsls    r1, r1, #1
    4518:       448e            add     lr, r1
    451a:       bc02            pop    {r1}
    451c:       4770            bx      lr
    451e:       46c0            nop               ; (mov r8, r8)
    4520:       2200            movs    r2,#0
    4522:       0843            lsrs    r3, r0, #1
    4524:       428b            cmp     r3, r1
    4526:       d374            bcc.n  0x4612
    4528:       0903            lsrs    r3, r0, #4
    452a:       428b            cmp     r3, r1
    452c:       d35f            bcc.n  0x45ee
    452e:       0a03            lsrs    r3, r0, #8
    4530:       428b            cmp     r3, r1
    4532:       d344            bcc.n  0x45be
    4534:       0b03            lsrs    r3, r0, #12
    4536:       428b            cmp     r3, r1
    4538:       d328            bcc.n  0x458c
    453a:       0c03            lsrs    r3, r0, #16
    453c:       428b            cmp     r3, r1
    453e:       d30d            bcc.n  0x455c
    4540:       22ff            movs    r2,#255    ; 0xff
    4542:       0209            lsls    r1, r1, #8
    4544:       ba12            rev     r2, r2
    4546:       0c03            lsrs    r3, r0, #16
    4548:       428b            cmp     r3, r1
    454a:       d302            bcc.n  0x4552
    454c:       1212            asrs    r2, r2, #8
    454e:       0209            lsls    r1, r1, #8
    4550:       d065            beq.n  0x461e
    4552:       0b03            lsrs    r3, r0, #12
    4554:       428b            cmp     r3, r1
    4556:       d319            bcc.n  0x458c
    4558:       e000            b.n    0x455c
    455a:       0a09            lsrs    r1, r1, #8
    455c:       0bc3            lsrs    r3, r0, #15
    455e:       428b            cmp     r3, r1
    4560:       d301            bcc.n  0x4566
    4562:       03cb            lsls    r3, r1, #15
    4564:       1ac0            subs    r0, r0, r3
    4566:       4152            adcs    r2, r2
    4568:       0b83            lsrs    r3, r0, #14
    456a:       428b            cmp     r3, r1
    456c:       d301            bcc.n  0x4572
    456e:       038b            lsls    r3, r1, #14
    4570:       1ac0            subs    r0, r0, r3
    4572:       4152            adcs    r2, r2
    4574:       0b43            lsrs    r3, r0, #13
    4576:       428b            cmp     r3, r1
    4578:       d301            bcc.n  0x457e
    457a:       034b            lsls    r3, r1, #13
    457c:       1ac0            subs    r0, r0, r3
    457e:       4152            adcs    r2, r2
    4580:       0b03            lsrs    r3, r0, #12
    4582:       428b            cmp     r3, r1
    4584:       d301            bcc.n  0x458a
    4586:       030b            lsls    r3, r1, #12
    4588:       1ac0            subs    r0, r0, r3
    458a:       4152            adcs    r2, r2
    458c:       0ac3            lsrs    r3, r0, #11
    458e:       428b            cmp     r3, r1
    4590:       d301            bcc.n  0x4596
    4592:       02cb            lsls    r3, r1, #11
    4594:       1ac0            subs    r0, r0, r3
    4596:       4152            adcs    r2, r2
    4598:       0a83            lsrs    r3, r0, #10
    459a:       428b            cmp     r3, r1
    459c:       d301            bcc.n  0x45a2
    459e:       028b            lsls    r3, r1, #10
    45a0:       1ac0            subs    r0, r0, r3
    45a2:       4152            adcs    r2, r2
    45a4:       0a43            lsrs    r3, r0, #9
    45a6:       428b            cmp     r3, r1
    45a8:       d301            bcc.n  0x45ae
    45aa:       024b            lsls    r3, r1, #9
    45ac:       1ac0            subs    r0, r0, r3
    45ae:       4152            adcs    r2, r2
    45b0:       0a03            lsrs    r3, r0, #8
    45b2:       428b            cmp     r3, r1
    45b4:       d301            bcc.n  0x45ba
    45b6:       020b            lsls    r3, r1, #8
    45b8:       1ac0            subs    r0, r0, r3
    45ba:       4152            adcs    r2, r2
    45bc:       d2cd            bcs.n  0x455a
    45be:       09c3            lsrs    r3, r0, #7
    45c0:       428b            cmp     r3, r1
    45c2:       d301            bcc.n  0x45c8
    45c4:       01cb            lsls    r3, r1, #7
    45c6:       1ac0            subs    r0, r0, r3
    45c8:       4152            adcs    r2, r2
    45ca:       0983            lsrs    r3, r0, #6
    45cc:       428b            cmp     r3, r1
    45ce:       d301            bcc.n  0x45d4
    45d0:       018b            lsls    r3, r1, #6
    45d2:       1ac0            subs    r0, r0, r3
    45d4:       4152            adcs    r2, r2
    45d6:       0943            lsrs    r3, r0, #5
    45d8:       428b            cmp     r3, r1
    45da:       d301            bcc.n  0x45e0
    45dc:       014b            lsls    r3, r1, #5
    45de:       1ac0            subs    r0, r0, r3
    45e0:       4152            adcs    r2, r2
    45e2:       0903            lsrs    r3, r0, #4
    45e4:       428b            cmp     r3, r1
    45e6:       d301            bcc.n  0x45ec
    45e8:       010b            lsls    r3, r1, #4
    45ea:       1ac0            subs    r0, r0, r3
    45ec:       4152            adcs    r2, r2
    45ee:       08c3            lsrs    r3, r0, #3
    45f0:       428b            cmp     r3, r1
    45f2:       d301            bcc.n  0x45f8
    45f4:       00cb            lsls    r3, r1, #3
    45f6:       1ac0            subs    r0, r0, r3
    45f8:       4152            adcs    r2, r2
    45fa:       0883            lsrs    r3, r0, #2
    45fc:       428b            cmp     r3, r1
    45fe:       d301            bcc.n  0x4604
    4600:       008b            lsls    r3, r1, #2
    4602:       1ac0            subs    r0, r0, r3
    4604:       4152            adcs    r2, r2
    4606:       0843            lsrs    r3, r0, #1
    4608:       428b            cmp     r3, r1
    460a:       d301            bcc.n  0x4610
    460c:       004b            lsls    r3, r1, #1
    460e:       1ac0            subs    r0, r0, r3
    4610:       4152            adcs    r2, r2
    4612:       1a41            subs    r1, r0, r1
    4614:       d200            bcs.n  0x4618
    4616:       4601            mov     r1, r0
    4618:       4152            adcs    r2, r2
    461a:       4610            mov     r0, r2
    461c:       4770            bx      lr
    461e:       e7ff            b.n    0x4620
    4620:       b501            push   {r0,lr}
    4622:       2000            movs    r0,#0
    4624:       f000 f806       bl     0x4634
    4628:       bd02            pop    {r1, pc}
    462a:       46c0            nop               ; (mov r8, r8)
    462c:       2900            cmp     r1,#0
    462e:       d0f7            beq.n  0x4620
    4630:       e776            b.n    0x4520
    4632:       4770            bx      lr
    4634:       4770            bx      lr
    4636:       46c0            nop               ; (mov r8, r8)
    4638:       b570            push   {r4, r5, r6,lr}
    463a:       2600            movs    r6,#0
    463c:       4d0c            ldr     r5, [pc, #48]    ; (0x4670)
    463e:       4c0d            ldr     r4, [pc, #52]    ; (0x4674)
    4640:       1b64            subs    r4, r4, r5
    4642:       10a4            asrs    r4, r4, #2
    4644:       42a6            cmp     r6, r4
    4646:       d109            bne.n  0x465c
    4648:       2600            movs    r6,#0
    464a:       f000 f989       bl     0x4960
    464e:       4d0a            ldr     r5, [pc, #40]    ; (0x4678)
    4650:       4c0a            ldr     r4, [pc, #40]    ; (0x467c)
    4652:       1b64            subs    r4, r4, r5
    4654:       10a4            asrs    r4, r4, #2
    4656:       42a6            cmp     r6, r4
    4658:       d105            bne.n  0x4666
    465a:       bd70            pop    {r4, r5, r6, pc}
    465c:       00b3            lsls    r3, r6, #2
    465e:       58eb            ldr     r3, [r5, r3]
    4660:       4798            blx     r3
    4662:       3601            adds    r6, #1
    4664:       e7ee            b.n    0x4644
    4666:       00b3            lsls    r3, r6, #2
    4668:       58eb            ldr     r3, [r5, r3]
    466a:       4798            blx     r3
    466c:       3601            adds    r6, #1
    466e:       e7f2            b.n    0x4656
    4670:       00e8            lsls    r0, r5, #3
    4672:       2000            movs    r0,#0
    4674:       00e8            lsls    r0, r5, #3
    4676:       2000            movs    r0,#0
    4678:       00e8            lsls    r0, r5, #3
    467a:       2000            movs    r0,#0
    467c:       00f8            lsls    r0, r7, #3
    467e:       2000            movs    r0,#0
    4680:       b510            push   {r4,lr}
    4682:       4b03            ldr     r3, [pc, #12]    ; (0x4690)
    4684:       0001            movs    r1, r0
    4686:       6818            ldr     r0, [r3, #0]
    4688:       f000 f87c       bl     0x4784
    468c:       bd10            pop    {r4, pc}
    468e:       46c0            nop               ; (mov r8, r8)
    4690:       0084            lsls    r4, r0, #2
    4692:       2000            movs    r0,#0
    4694:       b510            push   {r4,lr}
    4696:       4b03            ldr     r3, [pc, #12]    ; (0x46a4)
    4698:       0001            movs    r1, r0
    469a:       6818            ldr     r0, [r3, #0]
    469c:       f000 f828       bl     0x46f0
    46a0:       bd10            pop    {r4, pc}
    46a2:       46c0            nop               ; (mov r8, r8)
    46a4:       0084            lsls    r4, r0, #2
    46a6:       2000            movs    r0,#0
    46a8:       2300            movs    r3,#0
    46aa:       b510            push   {r4,lr}
    46ac:       429a            cmp     r2, r3
    46ae:       d100            bne.n  0x46b2
    46b0:       bd10            pop    {r4, pc}
    46b2:       5ccc            ldrb    r4, [r1, r3]
    46b4:       54c4            strb    r4, [r0, r3]
    46b6:       3301            adds    r3, #1
    46b8:       e7f8            b.n    0x46ac
    46ba:       b510            push   {r4,lr}
    46bc:       4288            cmp     r0, r1
    46be:       d902            bls.n  0x46c6
    46c0:       188b            adds    r3, r1, r2
    46c2:       4298            cmp     r0, r3
    46c4:       d303            bcc.n  0x46ce
    46c6:       2300            movs    r3,#0
    46c8:       e007            b.n    0x46da
    46ca:       5c8b            ldrb    r3, [r1, r2]
    46cc:       5483            strb    r3, [r0, r2]
    46ce:       3a01            subs    r2, #1
    46d0:       d2fb            bcs.n  0x46ca
    46d2:       bd10            pop    {r4, pc}
    46d4:       5ccc            ldrb    r4, [r1, r3]
    46d6:       54c4            strb    r4, [r0, r3]
    46d8:       3301            adds    r3, #1
    46da:       429a            cmp     r2, r3
    46dc:       d1fa            bne.n  0x46d4
    46de:       e7f8            b.n    0x46d2
    46e0:       0003            movs    r3, r0
    46e2:       1882            adds    r2, r0, r2
    46e4:       4293            cmp     r3, r2
    46e6:       d100            bne.n  0x46ea
    46e8:       4770            bx      lr
    46ea:       7019            strb    r1, [r3, #0]
    46ec:       3301            adds    r3, #1
    46ee:       e7f9            b.n    0x46e4
    46f0:       b570            push   {r4, r5, r6,lr}
    46f2:       0005            movs    r5, r0
    46f4:       2900            cmp     r1,#0
    46f6:       d010            beq.n  0x471a
    46f8:       1f0c            subs    r4, r1, #4
    46fa:       6823            ldr     r3, [r4, #0]
    46fc:       2b00            cmp     r3,#0
    46fe:       da00            bge.n  0x4702
    4700:       18e4            adds    r4, r4, r3
    4702:       0028            movs    r0, r5
    4704:       f000 f8de       bl     0x48c4
    4708:       4a1d            ldr     r2, [pc, #116]    ; (0x4780)
    470a:       6813            ldr     r3, [r2, #0]
    470c:       2b00            cmp     r3,#0
    470e:       d105            bne.n  0x471c
    4710:       6063            str     r3, [r4, #4]
    4712:       6014            str     r4, [r2, #0]
    4714:       0028            movs    r0, r5
    4716:       f000 f8dd       bl     0x48d4
    471a:       bd70            pop    {r4, r5, r6, pc}
    471c:       42a3            cmp     r3, r4
    471e:       d908            bls.n  0x4732
    4720:       6821            ldr     r1, [r4, #0]
    4722:       1860            adds    r0, r4, r1
    4724:       4283            cmp     r3, r0
    4726:       d1f3            bne.n  0x4710
    4728:       6818            ldr     r0, [r3, #0]
    472a:       685b            ldr     r3, [r3, #4]
    472c:       1841            adds    r1, r0, r1
    472e:       6021            str     r1, [r4, #0]
    4730:       e7ee            b.n    0x4710
    4732:       001a            movs    r2, r3
    4734:       685b            ldr     r3, [r3, #4]
    4736:       2b00            cmp     r3,#0
    4738:       d001            beq.n  0x473e
    473a:       42a3            cmp     r3, r4
    473c:       d9f9            bls.n  0x4732
    473e:       6811            ldr     r1, [r2, #0]
    4740:       1850            adds    r0, r2, r1
    4742:       42a0            cmp     r0, r4
    4744:       d10b            bne.n  0x475e
    4746:       6820            ldr     r0, [r4, #0]
    4748:       1809            adds    r1, r1, r0
    474a:       1850            adds    r0, r2, r1
    474c:       6011            str     r1, [r2, #0]
    474e:       4283            cmp     r3, r0
    4750:       d1e0            bne.n  0x4714
    4752:       6818            ldr     r0, [r3, #0]
    4754:       685b            ldr     r3, [r3, #4]
    4756:       1841            adds    r1, r0, r1
    4758:       6011            str     r1, [r2, #0]
    475a:       6053            str     r3, [r2, #4]
    475c:       e7da            b.n    0x4714
    475e:       42a0            cmp     r0, r4
    4760:       d902            bls.n  0x4768
    4762:       230c            movs    r3,#12
    4764:       602b            str     r3, [r5, #0]
    4766:       e7d5            b.n    0x4714
    4768:       6821            ldr     r1, [r4, #0]
    476a:       1860            adds    r0, r4, r1
    476c:       4283            cmp     r3, r0
    476e:       d103            bne.n  0x4778
    4770:       6818            ldr     r0, [r3, #0]
    4772:       685b            ldr     r3, [r3, #4]
    4774:       1841            adds    r1, r0, r1
    4776:       6021            str     r1, [r4, #0]
    4778:       6063            str     r3, [r4, #4]
    477a:       6054            str     r4, [r2, #4]
    477c:       e7ca            b.n    0x4714
    477e:       46c0            nop               ; (mov r8, r8)
    4780:       0a1c            lsrs    r4, r3, #8
    4782:       2000            movs    r0,#0
    4784:       b5f8            push   {r3, r4, r5, r6, r7,lr}
    4786:       2303            movs    r3,#3
    4788:       1ccd            adds    r5, r1, #3
    478a:       439d            bics    r5, r3
    478c:       3508            adds    r5, #8
    478e:       0006            movs    r6, r0
    4790:       2d0c            cmp     r5,#12
    4792:       d21f            bcs.n  0x47d4
    4794:       250c            movs    r5,#12
    4796:       42a9            cmp     r1, r5
    4798:       d81e            bhi.n  0x47d8
    479a:       0030            movs    r0, r6
    479c:       f000 f892       bl     0x48c4
    47a0:       4925            ldr     r1, [pc, #148]    ; (0x4838)
    47a2:       680a            ldr     r2, [r1, #0]
    47a4:       0014            movs    r4, r2
    47a6:       2c00            cmp     r4,#0
    47a8:       d11a            bne.n  0x47e0
    47aa:       4f24            ldr     r7, [pc, #144]    ; (0x483c)
    47ac:       683b            ldr     r3, [r7, #0]
    47ae:       2b00            cmp     r3,#0
    47b0:       d104            bne.n  0x47bc
    47b2:       0021            movs    r1, r4
    47b4:       0030            movs    r0, r6
    47b6:       f000 f84d       bl     0x4854
    47ba:       6038            str     r0, [r7, #0]
    47bc:       0029            movs    r1, r5
    47be:       0030            movs    r0, r6
    47c0:       f000 f848       bl     0x4854
    47c4:       1c43            adds    r3, r0, #1
    47c6:       d12b            bne.n  0x4820
    47c8:       230c            movs    r3,#12
    47ca:       0030            movs    r0, r6
    47cc:       6033            str     r3, [r6, #0]
    47ce:       f000 f881       bl     0x48d4
    47d2:       e003            b.n    0x47dc
    47d4:       2d00            cmp     r5,#0
    47d6:       dade            bge.n  0x4796
    47d8:       230c            movs    r3,#12
    47da:       6033            str     r3, [r6, #0]
    47dc:       2000            movs    r0,#0
    47de:       bdf8            pop    {r3, r4, r5, r6, r7, pc}
    47e0:       6823            ldr     r3, [r4, #0]
    47e2:       1b5b            subs    r3, r3, r5
    47e4:       d419            bmi.n  0x481a
    47e6:       2b0b            cmp     r3,#11
    47e8:       d903            bls.n  0x47f2
    47ea:       6023            str     r3, [r4, #0]
    47ec:       18e4            adds    r4, r4, r3
    47ee:       6025            str     r5, [r4, #0]
    47f0:       e003            b.n    0x47fa
    47f2:       6863            ldr     r3, [r4, #4]
    47f4:       42a2            cmp     r2, r4
    47f6:       d10e            bne.n  0x4816
    47f8:       600b            str     r3, [r1, #0]
    47fa:       0030            movs    r0, r6
    47fc:       f000 f86a       bl     0x48d4
    4800:       0020            movs    r0, r4
    4802:       2207            movs    r2,#7
    4804:       300b            adds    r0, #11
    4806:       1d23            adds    r3, r4, #4
    4808:       4390            bics    r0, r2
    480a:       1ac2            subs    r2, r0, r3
    480c:       4298            cmp     r0, r3
    480e:       d0e6            beq.n  0x47de
    4810:       1a1b            subs    r3, r3, r0
    4812:       50a3            str     r3, [r4, r2]
    4814:       e7e3            b.n    0x47de
    4816:       6053            str     r3, [r2, #4]
    4818:       e7ef            b.n    0x47fa
    481a:       0022            movs    r2, r4
    481c:       6864            ldr     r4, [r4, #4]
    481e:       e7c2            b.n    0x47a6
    4820:       2303            movs    r3,#3
    4822:       1cc4            adds    r4, r0, #3
    4824:       439c            bics    r4, r3
    4826:       42a0            cmp     r0, r4
    4828:       d0e1            beq.n  0x47ee
    482a:       1a21            subs    r1, r4, r0
    482c:       0030            movs    r0, r6
    482e:       f000 f811       bl     0x4854
    4832:       1c43            adds    r3, r0, #1
    4834:       d1db            bne.n  0x47ee
    4836:       e7c7            b.n    0x47c8
    4838:       0a1c            lsrs    r4, r3, #8
    483a:       2000            movs    r0,#0
    483c:       0a20            lsrs    r0, r4, #8
    483e:       2000            movs    r0,#0
    4840:       b510            push   {r4,lr}
    4842:       4b03            ldr     r3, [pc, #12]    ; (0x4850)
    4844:       000a            movs    r2, r1
    4846:       0001            movs    r1, r0
    4848:       6818            ldr     r0, [r3, #0]
    484a:       f000 f84b       bl     0x48e4
    484e:       bd10            pop    {r4, pc}
    4850:       0084            lsls    r4, r0, #2
    4852:       2000            movs    r0,#0
    4854:       2300            movs    r3,#0
    4856:       b570            push   {r4, r5, r6,lr}
    4858:       4d06            ldr     r5, [pc, #24]    ; (0x4874)
    485a:       0004            movs    r4, r0
    485c:       0008            movs    r0, r1
    485e:       602b            str     r3, [r5, #0]
    4860:       f000 f870       bl     0x4944
    4864:       1c43            adds    r3, r0, #1
    4866:       d103            bne.n  0x4870
    4868:       682b            ldr     r3, [r5, #0]
    486a:       2b00            cmp     r3,#0
    486c:       d000            beq.n  0x4870
    486e:       6023            str     r3, [r4, #0]
    4870:       bd70            pop    {r4, r5, r6, pc}
    4872:       46c0            nop               ; (mov r8, r8)
    4874:       0a28            lsrs    r0, r5, #8
    4876:       2000            movs    r0,#0
    4878:       0003            movs    r3, r0
    487a:       780a            ldrb    r2, [r1, #0]
    487c:       3101            adds    r1, #1
    487e:       701a            strb    r2, [r3, #0]
    4880:       3301            adds    r3, #1
    4882:       2a00            cmp     r2,#0
    4884:       d1f9            bne.n  0x487a
    4886:       4770            bx      lr
    4888:       2300            movs    r3,#0
    488a:       5cc2            ldrb    r2, [r0, r3]
    488c:       3301            adds    r3, #1
    488e:       2a00            cmp     r2,#0
    4890:       d1fb            bne.n  0x488a
    4892:       1e58            subs    r0, r3, #1
    4894:       4770            bx      lr
    4896:       780a            ldrb    r2, [r1, #0]
    4898:       b530            push   {r4, r5,lr}
    489a:       2a00            cmp     r2,#0
    489c:       d10c            bne.n  0x48b8
    489e:       bd30            pop    {r4, r5, pc}
    48a0:       429a            cmp     r2, r3
    48a2:       d108            bne.n  0x48b6
    48a4:       2301            movs    r3,#1
    48a6:       5ccc            ldrb    r4, [r1, r3]
    48a8:       2c00            cmp     r4,#0
    48aa:       d0f8            beq.n  0x489e
    48ac:       5cc5            ldrb    r5, [r0, r3]
    48ae:       42a5            cmp     r5, r4
    48b0:       d101            bne.n  0x48b6
    48b2:       3301            adds    r3, #1
    48b4:       e7f7            b.n    0x48a6
    48b6:       3001            adds    r0, #1
    48b8:       7803            ldrb    r3, [r0, #0]
    48ba:       2b00            cmp     r3,#0
    48bc:       d1f0            bne.n  0x48a0
    48be:       0018            movs    r0, r3
    48c0:       e7ed            b.n    0x489e
    48c2:       0000            movs    r0, r0
    48c4:       b510            push   {r4,lr}
    48c6:       4802            ldr     r0, [pc, #8]    ; (0x48d0)
    48c8:       f000 f832       bl     0x4930
    48cc:       bd10            pop    {r4, pc}
    48ce:       46c0            nop               ; (mov r8, r8)
    48d0:       0a30            lsrs    r0, r6, #8
    48d2:       2000            movs    r0,#0
    48d4:       b510            push   {r4,lr}
    48d6:       4802            ldr     r0, [pc, #8]    ; (0x48e0)
    48d8:       f000 f82b       bl     0x4932
    48dc:       bd10            pop    {r4, pc}
    48de:       46c0            nop               ; (mov r8, r8)
    48e0:       0a30            lsrs    r0, r6, #8
    48e2:       2000            movs    r0,#0
    48e4:       b5f8            push   {r3, r4, r5, r6, r7,lr}
    48e6:       0007            movs    r7, r0
    48e8:       000d            movs    r5, r1
    48ea:       0016            movs    r6, r2
    48ec:       2900            cmp     r1,#0
    48ee:       d105            bne.n  0x48fc
    48f0:       0011            movs    r1, r2
    48f2:       f7ff ff47       bl     0x4784
    48f6:       0004            movs    r4, r0
    48f8:       0020            movs    r0, r4
    48fa:       bdf8            pop    {r3, r4, r5, r6, r7, pc}
    48fc:       2a00            cmp     r2,#0
    48fe:       d103            bne.n  0x4908
    4900:       f7ff fef6       bl     0x46f0
    4904:       0034            movs    r4, r6
    4906:       e7f7            b.n    0x48f8
    4908:       f000 f814       bl     0x4934
    490c:       002c            movs    r4, r5
    490e:       42b0            cmp     r0, r6
    4910:       d2f2            bcs.n  0x48f8
    4912:       0031            movs    r1, r6
    4914:       0038            movs    r0, r7
    4916:       f7ff ff35       bl     0x4784
    491a:       1e04            subs    r4, r0, #0
    491c:       d0ec            beq.n  0x48f8
    491e:       0029            movs    r1, r5
    4920:       0032            movs    r2, r6
    4922:       f7ff fec1       bl     0x46a8
    4926:       0029            movs    r1, r5
    4928:       0038            movs    r0, r7
    492a:       f7ff fee1       bl     0x46f0
    492e:       e7e3            b.n    0x48f8
    4930:       4770            bx      lr
    4932:       4770            bx      lr
    4934:       1f0b            subs    r3, r1, #4
    4936:       681b            ldr     r3, [r3, #0]
    4938:       1f18            subs    r0, r3, #4
    493a:       2b00            cmp     r3,#0
    493c:       da01            bge.n  0x4942
    493e:       580b            ldr     r3, [r1, r0]
    4940:       18c0            adds    r0, r0, r3
    4942:       4770            bx      lr
    4944:       4a04            ldr     r2, [pc, #16]    ; (0x4958)
    4946:       0003            movs    r3, r0
    4948:       6810            ldr     r0, [r2, #0]
    494a:       2800            cmp     r0,#0
    494c:       d002            beq.n  0x4954
    494e:       18c3            adds    r3, r0, r3
    4950:       6013            str     r3, [r2, #0]
    4952:       4770            bx      lr
    4954:       4801            ldr     r0, [pc, #4]    ; (0x495c)
    4956:       e7fa            b.n    0x494e
    4958:       0a24            lsrs    r4, r4, #8
    495a:       2000            movs    r0,#0
    495c:       0a38            lsrs    r0, r7, #8
    495e:       2000            movs    r0,#0
    4960:       b5f8            push   {r3, r4, r5, r6, r7,lr}
    4962:       46c0            nop               ; (mov r8, r8)
    4964:       bcf8            pop    {r3, r4, r5, r6, r7}
    4966:       bc08            pop    {r3}
    4968:       469e            mov     lr, r3
    496a:       4770            bx      lr
    496c:       b5f8            push   {r3, r4, r5, r6, r7,lr}
    496e:       46c0            nop               ; (mov r8, r8)
    4970:       bcf8            pop    {r3, r4, r5, r6, r7}
    4972:       bc08            pop    {r3}
    4974:       469e            mov     lr, r3
    4976:       4770            bx      lr
    4978:       0a0a            lsrs    r2, r1, #8
    497a:       7453            strb    r3, [r2, #17]
    497c:       6972            ldr     r2, [r6, #20]
    497e:       676e            str     r6, [r5, #116]    ; 0x74
    4980:       7220            strb    r0, [r4, #8]
    4982:       7065            strb    r5, [r4, #1]
    4984:       616c            str     r4, [r5, #20]
    4986:       6563            str     r3, [r4, #84]    ; 0x54
    4988:       0a3a            lsrs    r2, r7, #8
    498a:       3c00            subs    r4, #0
    498c:       7468            strb    r0, [r5, #17]
    498e:       6c6d            ldr     r5, [r5, #68]    ; 0x44
    4990:       3c3e            subs    r4, #62     ; 0x3e
    4992:       6568            str     r0, [r5, #84]    ; 0x54
    4994:       6461            str     r1, [r4, #68]    ; 0x44
    4996:       3c3e            subs    r4, #62     ; 0x3e
    4998:       6f62            ldr     r2, [r4, #116]    ; 0x74
    499a:       7964            ldrb    r4, [r4, #5]
    499c:       003e            movs    r6, r7
    499e:       003c            movs    r4, r7
    49a0:       2f3c            cmp     r7,#60     ; 0x3c
    49a2:       4f00            ldr     r7, [pc, #0]    ; (0x49a4)
    49a4:       6972            ldr     r2, [r6, #20]
    49a6:       6967            ldr     r7, [r4, #20]
    49a8:       616e            str     r6, [r5, #20]
    49aa:       206c            movs    r0,#108    ; 0x6c
    49ac:       7473            strb    r3, [r6, #17]
    49ae:       6972            ldr     r2, [r6, #20]
    49b0:       676e            str     r6, [r5, #116]    ; 0x74
    49b2:       203a            movs    r0,#58    ; 0x3a
    49b4:       4d00            ldr     r5, [pc, #0]    ; (0x49b8)
    49b6:       646f            str     r7, [r5, #68]    ; 0x44
    49b8:       6669            str     r1, [r5, #100]    ; 0x64
    49ba:       6569            str     r1, [r5, #84]    ; 0x54
    49bc:       2064            movs    r0,#100    ; 0x64
    49be:       7473            strb    r3, [r6, #17]
    49c0:       6972            ldr     r2, [r6, #20]
    49c2:       676e            str     r6, [r5, #116]    ; 0x74
    49c4:       203a            movs    r0,#58    ; 0x3a
    49c6:       6200            str     r0, [r0, #32]
    49c8:       6f6f            ldr     r7, [r5, #116]    ; 0x74
    49ca:       6b6b            ldr     r3, [r5, #52]    ; 0x34
    49cc:       6565            str     r5, [r4, #84]    ; 0x54
    49ce:       6570            str     r0, [r6, #84]    ; 0x54
    49d0:       0072            lsls    r2, r6, #1
    49d2:       6f6e            ldr     r6, [r5, #116]    ; 0x74
    49d4:       6d72            ldr     r2, [r6, #84]    ; 0x54
    49d6:       6c61            ldr     r1, [r4, #68]    ; 0x44
    49d8:       203a            movs    r0,#58    ; 0x3a
    49da:       6c00            ldr     r0, [r0, #64]    ; 0x40
    49dc:       3333            adds    r3, #51     ; 0x33
    49de:       7374            strb    r4, [r6, #13]
    49e0:       6570            str     r0, [r6, #84]    ; 0x54
    49e2:       6b61            ldr     r1, [r4, #52]    ; 0x34
    49e4:       203a            movs    r0,#58    ; 0x3a
    49e6:       0000            movs    r0, r0
    49e8:       0000            movs    r0, r0
    49ea:       0000            movs    r0, r0
    49ec:       000b            movs    r3, r1
    49ee:       0000            movs    r0, r0
    49f0:       0002            movs    r2, r0
    49f2:       0000            movs    r0, r0
    49f4:       0004            movs    r4, r0
    49f6:       0000            movs    r0, r0
    49f8:       00ff            lsls    r7, r7, #3
    49fa:       ffff ffff       nop    
    49fe:       000b            movs    r3, r1
    4a00:       0000            movs    r0, r0
    4a02:       0000            movs    r0, r0
    4a04:       000a            movs    r2, r1
    4a06:       0000            movs    r0, r0
    4a08:       0002            movs    r2, r0
    4a0a:       0000            movs    r0, r0
    4a0c:       0004            movs    r4, r0
    4a0e:       0000            movs    r0, r0
    4a10:       00ff            lsls    r7, r7, #3
    4a12:       ffff ffff       nop    
    4a16:       000a            movs    r2, r1
    4a18:       0000            movs    r0, r0
    4a1a:       0000            movs    r0, r0
    4a1c:       000e            movs    r6, r1
    4a1e:       0000            movs    r0, r0
    4a20:       0008            movs    r0, r1
    4a22:       0000            movs    r0, r0
    4a24:       0004            movs    r4, r0
    4a26:       0000            movs    r0, r0
    4a28:       00ff            lsls    r7, r7, #3
    4a2a:       ffff ffff       nop    
    4a2e:       000e            movs    r6, r1
    4a30:       0000            movs    r0, r0
    4a32:       0000            movs    r0, r0
    4a34:       0009            movs    r1, r1
    4a36:       0000            movs    r0, r0
    4a38:       0004            movs    r4, r0
    4a3a:       0000            movs    r0, r0
    4a3c:       001c            movs    r4, r3
    4a3e:       0000            movs    r0, r0
    4a40:       00ff            lsls    r7, r7, #3
    4a42:       0001            movs    r1, r0
    4a44:       0001            movs    r1, r0
    4a46:       0009            movs    r1, r1
    4a48:       0000            movs    r0, r0
    4a4a:       0000            movs    r0, r0
    4a4c:       0008            movs    r0, r1
    4a4e:       0000            movs    r0, r0
    4a50:       0004            movs    r4, r0
    4a52:       0000            movs    r0, r0
    4a54:       001c            movs    r4, r3
    4a56:       0000            movs    r0, r0
    4a58:       00ff            lsls    r7, r7, #3
    4a5a:       0000            movs    r0, r0
    4a5c:       0000            movs    r0, r0
    4a5e:       0010            movs    r0, r2
    4a60:       0000            movs    r0, r0
    4a62:       0000            movs    r0, r0
    4a64:       000f            movs    r7, r1
    4a66:       0000            movs    r0, r0
    4a68:       0004            movs    r4, r0
    4a6a:       0000            movs    r0, r0
    4a6c:       001c            movs    r4, r3
    4a6e:       0000            movs    r0, r0
    4a70:       00ff            lsls    r7, r7, #3
    4a72:       0301            lsls    r1, r0, #12
    4a74:       0301            lsls    r1, r0, #12
    4a76:       000f            movs    r7, r1
    4a78:       0000            movs    r0, r0
    4a7a:       0000            movs    r0, r0
    4a7c:       0014            movs    r4, r2
    4a7e:       0000            movs    r0, r0
    4a80:       0005            movs    r5, r0
    4a82:       0000            movs    r0, r0
    4a84:       002c            movs    r4, r5
    4a86:       0000            movs    r0, r0
    4a88:       00ff            lsls    r7, r7, #3
    4a8a:       0002            movs    r2, r0
    4a8c:       0002            movs    r2, r0
    4a8e:       0004            movs    r4, r0
    4a90:       0000            movs    r0, r0
    4a92:       0000            movs    r0, r0
    4a94:       0015            movs    r5, r2
    4a96:       0000            movs    r0, r0
    4a98:       0008            movs    r0, r1
    4a9a:       0000            movs    r0, r0
    4a9c:       0004            movs    r4, r0
    4a9e:       0000            movs    r0, r0
    4aa0:       00ff            lsls    r7, r7, #3
    4aa2:       ffff ffff       nop    
    4aa6:       0005            movs    r5, r0
    4aa8:       0000            movs    r0, r0
    4aaa:       0000            movs    r0, r0
    4aac:       0006            movs    r6, r0
    4aae:       0000            movs    r0, r0
    4ab0:       0004            movs    r4, r0
    4ab2:       0000            movs    r0, r0
    4ab4:       001e            movs    r6, r3
    4ab6:       0000            movs    r0, r0
    4ab8:       0006            movs    r6, r0
    4aba:       0100            lsls    r0, r0, #4
    4abc:       0100            lsls    r0, r0, #4
    4abe:       0006            movs    r6, r0
    4ac0:       0000            movs    r0, r0
    4ac2:       0000            movs    r0, r0
    4ac4:       0007            movs    r7, r0
    4ac6:       0000            movs    r0, r0
    4ac8:       0004            movs    r4, r0
    4aca:       0000            movs    r0, r0
    4acc:       001e            movs    r6, r3
    4ace:       0000            movs    r0, r0
    4ad0:       0007            movs    r7, r0
    4ad2:       0101            lsls    r1, r0, #4
    4ad4:       0101            lsls    r1, r0, #4
    4ad6:       0007            movs    r7, r0
    4ad8:       0000            movs    r0, r0
    4ada:       0000            movs    r0, r0
    4adc:       0012            movs    r2, r2
    4ade:       0000            movs    r0, r0
    4ae0:       0004            movs    r4, r0
    4ae2:       0000            movs    r0, r0
    4ae4:       001c            movs    r4, r3
    4ae6:       0000            movs    r0, r0
    4ae8:       00ff            lsls    r7, r7, #3
    4aea:       0300            lsls    r0, r0, #12
    4aec:       0300            lsls    r0, r0, #12
    4aee:       0002            movs    r2, r0
    4af0:       0000            movs    r0, r0
    4af2:       0000            movs    r0, r0
    4af4:       0010            movs    r0, r2
    4af6:       0000            movs    r0, r0
    4af8:       0004            movs    r4, r0
    4afa:       0000            movs    r0, r0
    4afc:       001c            movs    r4, r3
    4afe:       0000            movs    r0, r0
    4b00:       00ff            lsls    r7, r7, #3
    4b02:       0200            lsls    r0, r0, #8
    4b04:       0200            lsls    r0, r0, #8
    4b06:       0000            movs    r0, r0
    4b08:       0000            movs    r0, r0
    4b0a:       0000            movs    r0, r0
    4b0c:       0013            movs    r3, r2
    4b0e:       0000            movs    r0, r0
    4b10:       0005            movs    r5, r0
    4b12:       0000            movs    r0, r0
    4b14:       002c            movs    r4, r5
    4b16:       0000            movs    r0, r0
    4b18:       00ff            lsls    r7, r7, #3
    4b1a:       0003            movs    r3, r0
    4b1c:       0003            movs    r3, r0
    4b1e:       0003            movs    r3, r0
    4b20:       0000            movs    r0, r0
    4b22:       0000            movs    r0, r0
    4b24:       0011            movs    r1, r2
    4b26:       0000            movs    r0, r0
    4b28:       0004            movs    r4, r0
    4b2a:       0000            movs    r0, r0
    4b2c:       001c            movs    r4, r3
    4b2e:       0000            movs    r0, r0
    4b30:       00ff            lsls    r7, r7, #3
    4b32:       0201            lsls    r1, r0, #8
    4b34:       0201            lsls    r1, r0, #8
    4b36:       0001            movs    r1, r0
    4b38:       0000            movs    r0, r0
    4b3a:       0000            movs    r0, r0
    4b3c:       0002            movs    r2, r0
    4b3e:       0000            movs    r0, r0
    4b40:       0001            movs    r1, r0
    4b42:       0000            movs    r0, r0
    4b44:       0002            movs    r2, r0
    4b46:       0000            movs    r0, r0
    4b48:       0000            movs    r0, r0
    4b4a:       ffff ffff       nop    
    4b4e:       0002            movs    r2, r0
    4b50:       0001            movs    r1, r0
    4b52:       0000            movs    r0, r0
    4b54:       0008            movs    r0, r1
    4b56:       0000            movs    r0, r0
    4b58:       0001            movs    r1, r0
    4b5a:       0000            movs    r0, r0
    4b5c:       0018            movs    r0, r3
    4b5e:       0000            movs    r0, r0
    4b60:       0002            movs    r2, r0
    4b62:       0400            lsls    r0, r0, #16
    4b64:       0400            lsls    r0, r0, #16
    4b66:       0008            movs    r0, r1
    4b68:       0001            movs    r1, r0
    4b6a:       0000            movs    r0, r0
    4b6c:       0009            movs    r1, r1
    4b6e:       0000            movs    r0, r0
    4b70:       0001            movs    r1, r0
    4b72:       0000            movs    r0, r0
    4b74:       0018            movs    r0, r3
    4b76:       0000            movs    r0, r0
    4b78:       0003            movs    r3, r0
    4b7a:       0401            lsls    r1, r0, #16
    4b7c:       0401            lsls    r1, r0, #16
    4b7e:       0009            movs    r1, r1
    4b80:       0000            movs    r0, r0
    4b82:       0000            movs    r0, r0
    4b84:       0004            movs    r4, r0
    4b86:       0000            movs    r0, r0
    4b88:       0001            movs    r1, r0
    4b8a:       0000            movs    r0, r0
    4b8c:       0000            movs    r0, r0
    4b8e:       0000            movs    r0, r0
    4b90:       0004            movs    r4, r0
    4b92:       ffff ffff       nop    
    4b96:       0004            movs    r4, r0
    4b98:       0000            movs    r0, r0
    4b9a:       0000            movs    r0, r0
    4b9c:       0005            movs    r5, r0
    4b9e:       0000            movs    r0, r0
    4ba0:       0001            movs    r1, r0
    4ba2:       0000            movs    r0, r0
    4ba4:       0000            movs    r0, r0
    4ba6:       0000            movs    r0, r0
    4ba8:       0005            movs    r5, r0
    4baa:       ffff ffff       nop    
    4bae:       0005            movs    r5, r0
    4bb0:       0001            movs    r1, r0
    4bb2:       0000            movs    r0, r0
    4bb4:       0002            movs    r2, r0
    4bb6:       0000            movs    r0, r0
    4bb8:       0001            movs    r1, r0
    4bba:       0000            movs    r0, r0
    4bbc:       0000            movs    r0, r0
    4bbe:       0000            movs    r0, r0
    4bc0:       000a            movs    r2, r1
    4bc2:       ffff ffff       nop    
    4bc6:       0002            movs    r2, r0
    4bc8:       0000            movs    r0, r0
    4bca:       0000            movs    r0, r0
    4bcc:       0006            movs    r6, r0
    4bce:       0000            movs    r0, r0
    4bd0:       0001            movs    r1, r0
    4bd2:       0000            movs    r0, r0
    4bd4:       001e            movs    r6, r3
    4bd6:       0000            movs    r0, r0
    4bd8:       0006            movs    r6, r0
    4bda:       0100            lsls    r0, r0, #4
    4bdc:       0100            lsls    r0, r0, #4
    4bde:       0006            movs    r6, r0
    4be0:       0000            movs    r0, r0
    4be2:       0000            movs    r0, r0
    4be4:       0007            movs    r7, r0
    4be6:       0000            movs    r0, r0
    4be8:       0001            movs    r1, r0
    4bea:       0000            movs    r0, r0
    4bec:       001e            movs    r6, r3
    4bee:       0000            movs    r0, r0
    4bf0:       0007            movs    r7, r0
    4bf2:       0101            lsls    r1, r0, #4
    4bf4:       0101            lsls    r1, r0, #4
    4bf6:       0007            movs    r7, r0
    4bf8:       0000            movs    r0, r0
    4bfa:       0000            movs    r0, r0
    4bfc:       0008            movs    r0, r1
    4bfe:       0000            movs    r0, r0
    4c00:       0001            movs    r1, r0
    4c02:       0000            movs    r0, r0
    4c04:       001e            movs    r6, r3
    4c06:       0000            movs    r0, r0
    4c08:       0010            movs    r0, r2
    4c0a:       0000            movs    r0, r0
    4c0c:       0000            movs    r0, r0
    4c0e:       0010            movs    r0, r2
    4c10:       0000            movs    r0, r0
    4c12:       0000            movs    r0, r0
    4c14:       0009            movs    r1, r1
    4c16:       0000            movs    r0, r0
    4c18:       0001            movs    r1, r0
    4c1a:       0000            movs    r0, r0
    4c1c:       001e            movs    r6, r3
    4c1e:       0000            movs    r0, r0
    4c20:       0011            movs    r1, r2
    4c22:       0001            movs    r1, r0
    4c24:       0001            movs    r1, r0
    4c26:       0009            movs    r1, r1
    4c28:       0000            movs    r0, r0
    4c2a:       0000            movs    r0, r0
    4c2c:       000b            movs    r3, r1
    4c2e:       0000            movs    r0, r0
    4c30:       0001            movs    r1, r0
    4c32:       0000            movs    r0, r0
    4c34:       0006            movs    r6, r0
    4c36:       0000            movs    r0, r0
    4c38:       0013            movs    r3, r2
    4c3a:       ffff ffff       nop    
    4c3e:       000b            movs    r3, r1
    4c40:       0000            movs    r0, r0
    4c42:       0000            movs    r0, r0
    4c44:       000a            movs    r2, r1
    4c46:       0000            movs    r0, r0
    4c48:       0001            movs    r1, r0
    4c4a:       0000            movs    r0, r0
    4c4c:       0006            movs    r6, r0
    4c4e:       0000            movs    r0, r0
    4c50:       0012            movs    r2, r2
    4c52:       ffff ffff       nop    
    4c56:       000a            movs    r2, r1
    4c58:       0000            movs    r0, r0
    4c5a:       0000            movs    r0, r0
    4c5c:       0016            movs    r6, r2
    4c5e:       0000            movs    r0, r0
    4c60:       0002            movs    r2, r0
    4c62:       0000            movs    r0, r0
    4c64:       0004            movs    r4, r0
    4c66:       0000            movs    r0, r0
    4c68:       00ff            lsls    r7, r7, #3
    4c6a:       ffff ffff       nop    
    4c6e:       0006            movs    r6, r0
    4c70:       0000            movs    r0, r0
    4c72:       0000            movs    r0, r0
    4c74:       0017            movs    r7, r2
    4c76:       0000            movs    r0, r0
    4c78:       0002            movs    r2, r0
    4c7a:       0000            movs    r0, r0
    4c7c:       0004            movs    r4, r0
    4c7e:       0000            movs    r0, r0
    4c80:       00ff            lsls    r7, r7, #3
    4c82:       ffff ffff       nop    
    4c86:       0007            movs    r7, r0
    4c88:       0000            movs    r0, r0
    4c8a:       0000            movs    r0, r0
    4c8c:       000c            movs    r4, r1
    4c8e:       0000            movs    r0, r0
    4c90:       0003            movs    r3, r0
    4c92:       0000            movs    r0, r0
    4c94:       0004            movs    r4, r0
    4c96:       0000            movs    r0, r0
    4c98:       00ff            lsls    r7, r7, #3
    4c9a:       ffff ffff       nop    
    4c9e:       000c            movs    r4, r1
    4ca0:       0001            movs    r1, r0
    4ca2:       0000            movs    r0, r0
    4ca4:       000a            movs    r2, r1
    4ca6:       0000            movs    r0, r0
    4ca8:       0003            movs    r3, r0
    4caa:       0000            movs    r0, r0
    4cac:       0004            movs    r4, r0
    4cae:       0000            movs    r0, r0
    4cb0:       00ff            lsls    r7, r7, #3
    4cb2:       ffff ffff       nop    
    4cb6:       000a            movs    r2, r1
    4cb8:       0001            movs    r1, r0
    4cba:       0000            movs    r0, r0
    4cbc:       000b            movs    r3, r1
    4cbe:       0000            movs    r0, r0
    4cc0:       0003            movs    r3, r0
    4cc2:       0000            movs    r0, r0
    4cc4:       0004            movs    r4, r0
    4cc6:       0000            movs    r0, r0
    4cc8:       00ff            lsls    r7, r7, #3
    4cca:       ffff ffff       nop    
    4cce:       000b            movs    r3, r1
    4cd0:       0001            movs    r1, r0
    4cd2:       0000            movs    r0, r0
    4cd4:       0003            movs    r3, r0
    4cd6:       0000            movs    r0, r0
    4cd8:       000b            movs    r3, r1
    4cda:       0000            movs    r0, r0
    4cdc:       0004            movs    r4, r0
    4cde:       0000            movs    r0, r0
    4ce0:       00ff            lsls    r7, r7, #3
    4ce2:       ffff ffff       nop    
    4ce6:       00ff            lsls    r7, r7, #3
    4ce8:       0000            movs    r0, r0
    4cea:       0000            movs    r0, r0
    4cec:       001b            movs    r3, r3
    4cee:       0000            movs    r0, r0
    4cf0:       000b            movs    r3, r1
    4cf2:       0000            movs    r0, r0
    4cf4:       0004            movs    r4, r0
    4cf6:       0000            movs    r0, r0
    4cf8:       00ff            lsls    r7, r7, #3
    4cfa:       ffff ffff       nop    
    4cfe:       00ff            lsls    r7, r7, #3
    4d00:       0000            movs    r0, r0
    4d02:       0000            movs    r0, r0
    4d04:       001c            movs    r4, r3
    4d06:       0000            movs    r0, r0
    4d08:       0006            movs    r6, r0
    4d0a:       0000            movs    r0, r0
    4d0c:       0000            movs    r0, r0
    4d0e:       0000            movs    r0, r0
    4d10:       00ff            lsls    r7, r7, #3
    4d12:       ffff ffff       nop    
    4d16:       00ff            lsls    r7, r7, #3
    4d18:       0000            movs    r0, r0
    4d1a:       0000            movs    r0, r0
    4d1c:       0018            movs    r0, r3
    4d1e:       0000            movs    r0, r0
    4d20:       0006            movs    r6, r0
    4d22:       0000            movs    r0, r0
    4d24:       0000            movs    r0, r0
    4d26:       0000            movs    r0, r0
    4d28:       00ff            lsls    r7, r7, #3
    4d2a:       ffff ffff       nop    
    4d2e:       00ff            lsls    r7, r7, #3
    4d30:       0000            movs    r0, r0
    4d32:       0000            movs    r0, r0
    4d34:       0019            movs    r1, r3
    4d36:       0000            movs    r0, r0
    4d38:       0006            movs    r6, r0
    4d3a:       0000            movs    r0, r0
    4d3c:       0000            movs    r0, r0
    4d3e:       0000            movs    r0, r0
    4d40:       00ff            lsls    r7, r7, #3
    4d42:       ffff ffff       nop    
    4d46:       00ff            lsls    r7, r7, #3
    4d48:       0000            movs    r0, r0
    4d4a:       0000            movs    r0, r0
    4d4c:       000e            movs    r6, r1
    4d4e:       0000            movs    r0, r0
    4d50:       0002            movs    r2, r0
    4d52:       0000            movs    r0, r0
    4d54:       0004            movs    r4, r0
    4d56:       0000            movs    r0, r0
    4d58:       00ff            lsls    r7, r7, #3
    4d5a:       ffff ffff       nop    
    4d5e:       00ff            lsls    r7, r7, #3
    4d60:       0000            movs    r0, r0
    4d62:       0000            movs    r0, r0
    4d64:       0008            movs    r0, r1
    4d66:       0000            movs    r0, r0
    4d68:       0003            movs    r3, r0
    4d6a:       0000            movs    r0, r0
    4d6c:       0004            movs    r4, r0
    4d6e:       0000            movs    r0, r0
    4d70:       00ff            lsls    r7, r7, #3
    4d72:       ffff ffff       nop    
    4d76:       00ff            lsls    r7, r7, #3
    4d78:       0000            movs    r0, r0
    4d7a:       0000            movs    r0, r0
    4d7c:       0009            movs    r1, r1
    4d7e:       0000            movs    r0, r0
    4d80:       0003            movs    r3, r0
    4d82:       0000            movs    r0, r0
    4d84:       0004            movs    r4, r0
    4d86:       0000            movs    r0, r0
    4d88:       00ff            lsls    r7, r7, #3
    4d8a:       ffff ffff       nop    
    4d8e:       00ff            lsls    r7, r7, #3
    4d90:       0000            movs    r0, r0
    4d92:       0000            movs    r0, r0
    4d94:       000d            movs    r5, r1
    4d96:       0000            movs    r0, r0
    4d98:       0008            movs    r0, r1
    4d9a:       0000            movs    r0, r0
    4d9c:       0004            movs    r4, r0
    4d9e:       0000            movs    r0, r0
    4da0:       00ff            lsls    r7, r7, #3
    4da2:       ffff ffff       nop    
    4da6:       000d            movs    r5, r1
    4da8:       0000            movs    r0, r0
    4daa:       0000            movs    r0, r0
    4dac:       0006            movs    r6, r0
    4dae:       0000            movs    r0, r0
    4db0:       0004            movs    r4, r0
    4db2:       0000            movs    r0, r0
    4db4:       001e            movs    r6, r3
    4db6:       0000            movs    r0, r0
    4db8:       0006            movs    r6, r0
    4dba:       0100            lsls    r0, r0, #4
    4dbc:       0100            lsls    r0, r0, #4
    4dbe:       0006            movs    r6, r0
    4dc0:       0000            movs    r0, r0
    4dc2:       0000            movs    r0, r0
    4dc4:       0003            movs    r3, r0
    4dc6:       0000            movs    r0, r0
    4dc8:       0001            movs    r1, r0
    4dca:       0000            movs    r0, r0
    4dcc:       0002            movs    r2, r0
    4dce:       0000            movs    r0, r0
    4dd0:       00ff            lsls    r7, r7, #3
    4dd2:       ffff ffff       nop    
    4dd6:       00ff            lsls    r7, r7, #3
    4dd8:       0000            movs    r0, r0
    4dda:       0000            movs    r0, r0
    4ddc:       0002            movs    r2, r0
    4dde:       0000            movs    r0, r0
    4de0:       0001            movs    r1, r0
    4de2:       0000            movs    r0, r0
    4de4:       0002            movs    r2, r0
    4de6:       0000            movs    r0, r0
    4de8:       0014            movs    r4, r2
    4dea:       ffff ffff       nop    
    4dee:       0002            movs    r2, r0
    4df0:       0a0d            lsrs    r5, r1, #8
    4df2:       0000            movs    r0, r0
    4df4:       0800            lsrs    r0, r0, #32
    4df6:       4200            tst     r0, r0
    4df8:       0914            lsrs    r4, r2, #4
    4dfa:       0000            movs    r0, r0
    4dfc:       0c00            lsrs    r0, r0, #16
    4dfe:       4200            tst     r0, r0
    4e00:       0a15            lsrs    r5, r2, #8
    4e02:       0000            movs    r0, r0
    4e04:       1000            asrs    r0, r0, #32
    4e06:       4200            tst     r0, r0
    4e08:       0b16            lsrs    r6, r2, #12
    4e0a:       0000            movs    r0, r0
    4e0c:       1400            asrs    r0, r0, #16
    4e0e:       4200            tst     r0, r0
    4e10:       0c17            lsrs    r7, r2, #16
    4e12:       0000            movs    r0, r0
    4e14:       1800            adds    r0, r0, r0
    4e16:       4200            tst     r0, r0
    4e18:       0d18            lsrs    r0, r3, #20
    4e1a:       0000            movs    r0, r0
    4e1c:       1c00            adds    r0, r0, #0
    4e1e:       4200            tst     r0, r0
    4e20:       0e19            lsrs    r1, r3, #24
    4e22:       0000            movs    r0, r0
    4e24:       0000            movs    r0, r0
    4e26:       0000            movs    r0, r0
    4e28:       0000            movs    r0, r0
    4e2a:       0000            movs    r0, r0
    4e2c:       2bc1            cmp     r3,#193     ; 0xc1
    4e2e:       0000            movs    r0, r0
    4e30:       2bed            cmp     r3,#237     ; 0xed
    4e32:       0000            movs    r0, r0
    4e34:       2bbd            cmp     r3,#189     ; 0xbd
    4e36:       0000            movs    r0, r0
    4e38:       2be1            cmp     r3,#225     ; 0xe1
    4e3a:       0000            movs    r0, r0
    4e3c:       2bd5            cmp     r3,#213     ; 0xd5
    4e3e:       0000            movs    r0, r0
    4e40:       2c35            cmp     r4,#53     ; 0x35
    4e42:       0000            movs    r0, r0
    4e44:       2c19            cmp     r4,#25
    4e46:       0000            movs    r0, r0
    4e48:       0000            movs    r0, r0
    4e4a:       0000            movs    r0, r0
    4e4c:       0000            movs    r0, r0
    4e4e:       0000            movs    r0, r0
    4e50:       3067            adds    r0, #103     ; 0x67
    4e52:       0000            movs    r0, r0
    4e54:       2f4d            cmp     r7,#77     ; 0x4d
    4e56:       0000            movs    r0, r0
    4e58:       2e99            cmp     r6,#153     ; 0x99
    4e5a:       0000            movs    r0, r0
    4e5c:       2d45            cmp     r5,#69     ; 0x45
    4e5e:       0000            movs    r0, r0
    4e60:       2d6d            cmp     r5,#109     ; 0x6d
    4e62:       0000            movs    r0, r0
    4e64:       2d81            cmp     r5,#129     ; 0x81
    4e66:       0000            movs    r0, r0
    4e68:       6546            str     r6, [r0, #84]    ; 0x54
    4e6a:       7461            strb    r1, [r4, #17]
    4e6c:       6568            str     r0, [r5, #84]    ; 0x54
    4e6e:       2072            movs    r0,#114    ; 0x72
    4e70:       304d            adds    r0, #77     ; 0x4d
    4e72:       4520            cmp     r0, r4
    4e74:       7078            strb    r0, [r7, #1]
    4e76:       6572            str     r2, [r6, #84]    ; 0x54
    4e78:       7373            strb    r3, [r6, #13]
    4e7a:       0000            movs    r0, r0
    4e7c:       0304            lsls    r4, r0, #12
    4e7e:       0409            lsls    r1, r1, #16
    4e80:       6441            str     r1, [r0, #68]    ; 0x44
    4e82:       6661            str     r1, [r4, #100]    ; 0x64
    4e84:       7572            strb    r2, [r6, #21]
    4e86:       7469            strb    r1, [r5, #17]
    4e88:       1200            asrs    r0, r0, #8
    4e8a:       0001            movs    r1, r0
    4e8c:       ef02 0102       nop    
    4e90:       9a40            ldr     r2, [sp, #256]    ; 0x100
    4e92:       1b23            subs    r3, r4, r4
    4e94:       0080            lsls    r0, r0, #2
    4e96:       0101            lsls    r1, r0, #4
    4e98:       0302            lsls    r2, r0, #12
    4e9a:       0001            movs    r1, r0
    4e9c:       0000            movs    r0, r0
    4e9e:       0000            movs    r0, r0
    4ea0:       0000            movs    r0, r0
    4ea2:       0000            movs    r0, r0
    4ea4:       3fc5            subs    r7, #197     ; 0xc5
    4ea6:       0000            movs    r0, r0
    4ea8:       2839            cmp     r0,#57     ; 0x39
    4eaa:       0000            movs    r0, r0
    4eac:       3edd            subs    r6, #221     ; 0xdd
    4eae:       0000            movs    r0, r0
    4eb0:       3e97            subs    r6, #151     ; 0x97
    4eb2:       0000            movs    r0, r0
    4eb4:       3eb1            subs    r6, #177     ; 0xb1
    4eb6:       0000            movs    r0, r0
    4eb8:       4089            lsls    r1, r1
    4eba:       0000            movs    r0, r0
    4ebc:       3c89            subs    r4, #137     ; 0x89
    4ebe:       0000            movs    r0, r0
    4ec0:       3c79            subs    r4, #121     ; 0x79
    4ec2:       0000            movs    r0, r0
    4ec4:       3d01            subs    r5, #1
    4ec6:       0000            movs    r0, r0
    4ec8:       3ca3            subs    r4, #163     ; 0xa3
    4eca:       0000            movs    r0, r0
    4ecc:       3c75            subs    r4, #117     ; 0x75
    4ece:       0000            movs    r0, r0
    4ed0:       0000            movs    r0, r0
    4ed2:       0000            movs    r0, r0
    4ed4:       4240            negs    r0, r0
    4ed6:       000f            movs    r7, r1
    4ed8:       ffff ffff       nop    
    4edc:       ffff ffff       nop    
    4ee0:       c200            stmia   r2!, {}
    4ee2:       0001            movs    r1, r0
    4ee4:       0000            movs    r0, r0
    4ee6:       0008            movs    r0, r1
    4ee8:       0b08            lsrs    r0, r1, #12
    4eea:       0200            lsls    r0, r0, #8
    4eec:       0202            lsls    r2, r0, #8
    4eee:       0000            movs    r0, r0
    4ef0:       0409            lsls    r1, r1, #16
    4ef2:       0000            movs    r0, r0
    4ef4:       0201            lsls    r1, r0, #8
    4ef6:       0002            movs    r2, r0
    4ef8:       0500            lsls    r0, r0, #20
    4efa:       0024            movs    r4, r4
    4efc:       0110            lsls    r0, r2, #4
    4efe:       2404            movs    r4,#4
    4f00:       0602            lsls    r2, r0, #24
    4f02:       2405            movs    r4,#5
    4f04:       0006            movs    r6, r0
    4f06:       0501            lsls    r1, r0, #20
    4f08:       0124            lsls    r4, r4, #4
    4f0a:       0101            lsls    r1, r0, #4
    4f0c:       0507            lsls    r7, r0, #20
    4f0e:       0381            lsls    r1, r0, #14
    4f10:       0010            movs    r0, r2
    4f12:       0910            lsrs    r0, r2, #4
    4f14:       0104            lsls    r4, r0, #4
    4f16:       0200            lsls    r0, r0, #8
    4f18:       000a            movs    r2, r1
    4f1a:       0000            movs    r0, r0
    4f1c:       0507            lsls    r7, r0, #20
    4f1e:       0202            lsls    r2, r0, #8
    4f20:       0040            lsls    r0, r0, #1
    4f22:       0700            lsls    r0, r0, #28
    4f24:       8305            strh    r5, [r0, #24]
    4f26:       4002            ands    r2, r0
    4f28:       0000            movs    r0, r0
    4f2a:       0000            movs    r0, r0
    4f2c:       ffff ffff       nop    
    4f30:       0000            movs    r0, r0
    4f32:       0000            movs    r0, r0
    4f34:       0083            lsls    r3, r0, #2
    4f36:       0000            movs    r0, r0
    4f38:       0002            movs    r2, r0
    4f3a:       0000            movs    r0, r0
    4f3c:       0082            lsls    r2, r0, #2
    4f3e:       0000            movs    r0, r0
    4f40:       0000            movs    r0, r0
    4f42:       0000            movs    r0, r0
    4f44:       0000            movs    r0, r0
    4f46:       0000            movs    r0, r0
    4f48:       0000            movs    r0, r0
    4f4a:       0000            movs    r0, r0
    4f4c:       0000            movs    r0, r0
    4f4e:       0000            movs    r0, r0
    4f50:       0000            movs    r0, r0
    4f52:       0000            movs    r0, r0
    4f54:       0000            movs    r0, r0
    4f56:       0000            movs    r0, r0
    4f58:       0088            lsls    r0, r1, #2
    4f5a:       2000            movs    r0,#0
    4f5c:       0000            movs    r0, r0
    4f5e:       0000            movs    r0, r0
    4f60:       0000            movs    r0, r0
    4f62:       0000            movs    r0, r0
    4f64:       0000            movs    r0, r0
    4f66:       0000            movs    r0, r0
    4f68:       0000            movs    r0, r0
    4f6a:       0000            movs    r0, r0
    4f6c:       0000            movs    r0, r0
    4f6e:       0000            movs    r0, r0
    4f70:       0000            movs    r0, r0
    4f72:       0000            movs    r0, r0
    4f74:       0000            movs    r0, r0
    4f76:       0000            movs    r0, r0
    4f78:       0000            movs    r0, r0
    4f7a:       0000            movs    r0, r0
    4f7c:       0000            movs    r0, r0
    4f7e:       0000            movs    r0, r0
    4f80:       0000            movs    r0, r0
    4f82:       0000            movs    r0, r0
    4f84:       0000            movs    r0, r0
    4f86:       0000            movs    r0, r0
    4f88:       0000            movs    r0, r0
    4f8a:       0000            movs    r0, r0
    4f8c:       0000            movs    r0, r0
    4f8e:       0000            movs    r0, r0
    4f90:       0000            movs    r0, r0
    4f92:       0000            movs    r0, r0
    4f94:       0000            movs    r0, r0
    4f96:       0000            movs    r0, r0
    4f98:       0000            movs    r0, r0
    4f9a:       0000            movs    r0, r0
    4f9c:       0000            movs    r0, r0
    4f9e:       0000            movs    r0, r0
    4fa0:       0000            movs    r0, r0
    4fa2:       0000            movs    r0, r0
    4fa4:       0000            movs    r0, r0
    4fa6:       0000            movs    r0, r0
    4fa8:       0000            movs    r0, r0
    4faa:       0000            movs    r0, r0
    4fac:       0000            movs    r0, r0
    4fae:       0000            movs    r0, r0
    4fb0:       0000            movs    r0, r0
    4fb2:       0000            movs    r0, r0
    4fb4:       0000            movs    r0, r0
    4fb6:       0000            movs    r0, r0
    4fb8:       0000            movs    r0, r0
    4fba:       0000            movs    r0, r0
    4fbc:       20dd            movs    r0,#221    ; 0xdd
    4fbe:       0000            movs    r0, r0
    4fc0:       2245            movs    r2,#69    ; 0x45
    4fc2:       0000            movs    r0, r0
    4fc4:       2d1d            cmp     r5,#29
    4fc6:       0000            movs    r0, r0
    4fc8:       3c65            subs    r4, #101     ; 0x65
    4fca:       0000            movs    r0, r0
    4fcc:       20b5            movs    r0,#181    ; 0xb5
    4fce:       0000            movs    r0, r0
    4fd0:       0000            movs    r0, r0
    4fd2:       0000            movs    r0, r0
